Archive member included to satisfy reference by file (symbol)

/opt/arm-anykav500-linux-uclibcgnueabi/bin/../lib/gcc/arm-anykav500-linux-uclibcgnueabi/4.9.4/libgcc.a(_udivsi3.o)
                              arch/arm/cpu/arm926ejs/ak37e/libak37e.o (__aeabi_uidiv)
/opt/arm-anykav500-linux-uclibcgnueabi/bin/../lib/gcc/arm-anykav500-linux-uclibcgnueabi/4.9.4/libgcc.a(_divsi3.o)
                              common/libcommon.o (__aeabi_idiv)
/opt/arm-anykav500-linux-uclibcgnueabi/bin/../lib/gcc/arm-anykav500-linux-uclibcgnueabi/4.9.4/libgcc.a(_lshrdi3.o)
                              common/libcommon.o (__aeabi_llsr)
/opt/arm-anykav500-linux-uclibcgnueabi/bin/../lib/gcc/arm-anykav500-linux-uclibcgnueabi/4.9.4/libgcc.a(_ashldi3.o)
                              lib/libgeneric.o (__aeabi_llsl)
/opt/arm-anykav500-linux-uclibcgnueabi/bin/../lib/gcc/arm-anykav500-linux-uclibcgnueabi/4.9.4/libgcc.a(_aeabi_uldivmod.o)
                              arch/arm/cpu/arm926ejs/ak37e/libak37e.o (__aeabi_uldivmod)
/opt/arm-anykav500-linux-uclibcgnueabi/bin/../lib/gcc/arm-anykav500-linux-uclibcgnueabi/4.9.4/libgcc.a(_dvmd_lnx.o)
                              /opt/arm-anykav500-linux-uclibcgnueabi/bin/../lib/gcc/arm-anykav500-linux-uclibcgnueabi/4.9.4/libgcc.a(_udivsi3.o) (__aeabi_idiv0)
/opt/arm-anykav500-linux-uclibcgnueabi/bin/../lib/gcc/arm-anykav500-linux-uclibcgnueabi/4.9.4/libgcc.a(bpabi.o)
                              /opt/arm-anykav500-linux-uclibcgnueabi/bin/../lib/gcc/arm-anykav500-linux-uclibcgnueabi/4.9.4/libgcc.a(_aeabi_uldivmod.o) (__gnu_uldivmod_helper)
/opt/arm-anykav500-linux-uclibcgnueabi/bin/../lib/gcc/arm-anykav500-linux-uclibcgnueabi/4.9.4/libgcc.a(_divdi3.o)
                              /opt/arm-anykav500-linux-uclibcgnueabi/bin/../lib/gcc/arm-anykav500-linux-uclibcgnueabi/4.9.4/libgcc.a(bpabi.o) (__divdi3)
/opt/arm-anykav500-linux-uclibcgnueabi/bin/../lib/gcc/arm-anykav500-linux-uclibcgnueabi/4.9.4/libgcc.a(_udivdi3.o)
                              /opt/arm-anykav500-linux-uclibcgnueabi/bin/../lib/gcc/arm-anykav500-linux-uclibcgnueabi/4.9.4/libgcc.a(bpabi.o) (__udivdi3)

Discarded input sections

 .data          0x0000000000000000        0x0 arch/arm/cpu/arm926ejs/start.o
 .bss           0x0000000000000000        0x0 arch/arm/cpu/arm926ejs/start.o
 .text          0x0000000000000000       0xc4 arch/arm/cpu/arm926ejs/ak37e/libak37e.o
 .text.reset_timer_masked
                0x0000000000000000       0x2c arch/arm/cpu/arm926ejs/ak37e/libak37e.o
 .text.get_tbclk
                0x0000000000000000        0x8 arch/arm/cpu/arm926ejs/ak37e/libak37e.o
 .text.spl_board_init
                0x0000000000000000        0x4 arch/arm/cpu/arm926ejs/ak37e/libak37e.o
 .text.spl_boot_mode
                0x0000000000000000        0x8 arch/arm/cpu/arm926ejs/ak37e/libak37e.o
 .text.spl_boot_device
                0x0000000000000000        0x8 arch/arm/cpu/arm926ejs/ak37e/libak37e.o
 .text.dma_init
                0x0000000000000000       0x18 arch/arm/cpu/arm926ejs/ak37e/libak37e.o
 .text.test_init_serial
                0x0000000000000000       0x64 arch/arm/cpu/arm926ejs/ak37e/libak37e.o
 .text.test_putc
                0x0000000000000000       0x68 arch/arm/cpu/arm926ejs/ak37e/libak37e.o
 .text.test_print
                0x0000000000000000       0x20 arch/arm/cpu/arm926ejs/ak37e/libak37e.o
 .text.sysctl_clock
                0x0000000000000000       0xc0 arch/arm/cpu/arm926ejs/ak37e/libak37e.o
 .text.sysctl_get_clock_state
                0x0000000000000000       0x58 arch/arm/cpu/arm926ejs/ak37e/libak37e.o
 .text.sysctl_reset
                0x0000000000000000       0x28 arch/arm/cpu/arm926ejs/ak37e/libak37e.o
 .rodata.clock_value_tbl
                0x0000000000000000       0x48 arch/arm/cpu/arm926ejs/ak37e/libak37e.o
 .data          0x0000000000000000        0x0 arch/arm/cpu/arm926ejs/ak37e/libak37e.o
 .bss           0x0000000000000000        0x0 arch/arm/cpu/arm926ejs/ak37e/libak37e.o
 .text          0x0000000000000000        0x0 arch/arm/cpu/arm926ejs/libarm926ejs.o
 .text.invalidate_dcache_all
                0x0000000000000000        0xc arch/arm/cpu/arm926ejs/libarm926ejs.o
 .text.invalidate_dcache_range
                0x0000000000000000       0x34 arch/arm/cpu/arm926ejs/libarm926ejs.o
 .data          0x0000000000000000        0x0 arch/arm/cpu/arm926ejs/libarm926ejs.o
 .bss           0x0000000000000000        0x0 arch/arm/cpu/arm926ejs/libarm926ejs.o
 .text.__red_led_off
                0x0000000000000000        0x4 arch/arm/lib/libarm.o
 .text.__green_led_on
                0x0000000000000000        0x4 arch/arm/lib/libarm.o
 .text.__green_led_off
                0x0000000000000000        0x4 arch/arm/lib/libarm.o
 .text.__yellow_led_on
                0x0000000000000000        0x4 arch/arm/lib/libarm.o
 .text.__yellow_led_off
                0x0000000000000000        0x4 arch/arm/lib/libarm.o
 .text.__blue_led_on
                0x0000000000000000        0x4 arch/arm/lib/libarm.o
 .text.__blue_led_off
                0x0000000000000000        0x4 arch/arm/lib/libarm.o
 .text.check_spl_flag
                0x0000000000000000       0x4c arch/arm/lib/libarm.o
 .text.arch_fixup_memory_node
                0x0000000000000000       0x38 arch/arm/lib/libarm.o
 .text.__flush_cache
                0x0000000000000000       0x14 arch/arm/lib/libarm.o
 .text.__flush_dcache_all
                0x0000000000000000        0xc arch/arm/lib/libarm.o
 .text.__arm_init_before_mmu
                0x0000000000000000        0x4 arch/arm/lib/libarm.o
 .text.arm_init_domains
                0x0000000000000000        0x4 arch/arm/lib/libarm.o
 .text.set_section_dcache
                0x0000000000000000       0x14 arch/arm/lib/libarm.o
 .text.__mmu_page_table_flush
                0x0000000000000000        0x4 arch/arm/lib/libarm.o
 .text.mmu_set_region_dcache_behaviour
                0x0000000000000000       0x50 arch/arm/lib/libarm.o
 .text.dram_bank_mmu_setup
                0x0000000000000000       0x40 arch/arm/lib/libarm.o
 .text.icache_enable
                0x0000000000000000       0x18 arch/arm/lib/libarm.o
 .text.icache_status
                0x0000000000000000       0x10 arch/arm/lib/libarm.o
 .text.dcache_enable
                0x0000000000000000       0x6c arch/arm/lib/libarm.o
 .text.dcache_status
                0x0000000000000000       0x10 arch/arm/lib/libarm.o
 .data          0x0000000000000000        0x0 arch/arm/lib/libarm.o
 .bss           0x0000000000000000        0x0 arch/arm/lib/libarm.o
 .text          0x0000000000000000        0x0 common/libcommon.o
 .text.spi_flash_get_size
                0x0000000000000000       0x34 common/libcommon.o
 .text.serial_printf
                0x0000000000000000       0x40 common/libcommon.o
 .text.fputc    0x0000000000000000       0x20 common/libcommon.o
 .text.fputs    0x0000000000000000       0x20 common/libcommon.o
 .text.fprintf  0x0000000000000000       0x48 common/libcommon.o
 .text.dbg      0x0000000000000000        0xc common/libcommon.o
 .text.realloc  0x0000000000000000      0x4c0 common/libcommon.o
 .text.valloc   0x0000000000000000        0xc common/libcommon.o
 .text.pvalloc  0x0000000000000000       0x18 common/libcommon.o
 .text.cfree    0x0000000000000000        0x4 common/libcommon.o
 .text.malloc_usable_size
                0x0000000000000000       0x3c common/libcommon.o
 .text.mallopt  0x0000000000000000       0x68 common/libcommon.o
 .text.env_import_spl
                0x0000000000000000      0x144 common/libcommon.o
 .text.env_flags_parse_varaccess_from_binflags
                0x0000000000000000       0x28 common/libcommon.o
 .text.env_relocate_spec_spl
                0x0000000000000000       0xb4 common/libcommon.o
 .text.of_bus_default_map
                0x0000000000000000      0x118 common/libcommon.o
 .text.of_bus_default_count_cells
                0x0000000000000000       0xa4 common/libcommon.o
 .text.of_bus_default_translate
                0x0000000000000000       0xc4 common/libcommon.o
 .text.fdt_getprop_u32_default
                0x0000000000000000       0x5c common/libcommon.o
 .text.fdt_find_and_setprop
                0x0000000000000000       0x70 common/libcommon.o
 .text.do_fixup_by_path
                0x0000000000000000       0x54 common/libcommon.o
 .text.do_fixup_by_path_u32
                0x0000000000000000       0x40 common/libcommon.o
 .text.do_fixup_by_prop
                0x0000000000000000       0x94 common/libcommon.o
 .text.do_fixup_by_prop_u32
                0x0000000000000000       0x50 common/libcommon.o
 .text.do_fixup_by_compat
                0x0000000000000000       0x88 common/libcommon.o
 .text.do_fixup_by_compat_u32
                0x0000000000000000       0x40 common/libcommon.o
 .text.fdt_fixup_ethernet
                0x0000000000000000      0x12c common/libcommon.o
 .text.fdt_increase_size
                0x0000000000000000       0x30 common/libcommon.o
 .text.fdt_del_node_and_alias
                0x0000000000000000       0x44 common/libcommon.o
 .text.fdt_translate_address
                0x0000000000000000      0x2d0 common/libcommon.o
 .text.fdt_node_offset_by_compat_reg
                0x0000000000000000       0x88 common/libcommon.o
 .text.fdt_alloc_phandle
                0x0000000000000000       0x58 common/libcommon.o
 .text.fdt_set_phandle
                0x0000000000000000       0x74 common/libcommon.o
 .text.fdt_create_phandle
                0x0000000000000000       0x64 common/libcommon.o
 .text.fdt_set_node_status
                0x0000000000000000      0x118 common/libcommon.o
 .text.fdt_set_status_by_alias
                0x0000000000000000       0x2c common/libcommon.o
 .text.fdt_add_edid
                0x0000000000000000       0xac common/libcommon.o
 .text.fdt_verify_alias_address
                0x0000000000000000       0xcc common/libcommon.o
 .text.fdt_get_base_address
                0x0000000000000000       0x94 common/libcommon.o
 .text.flash_protect
                0x0000000000000000       0xec common/libcommon.o
 .text.hash_block
                0x0000000000000000       0x74 common/libcommon.o
 .text.hash_command
                0x0000000000000000       0xa0 common/libcommon.o
 .text.arch_fixup_memory_node
                0x0000000000000000        0x8 common/libcommon.o
 .text.get_table_entry_id
                0x0000000000000000       0x4c common/libcommon.o
 .text.genimg_get_os_id
                0x0000000000000000       0x18 common/libcommon.o
 .text.genimg_get_arch_id
                0x0000000000000000       0x18 common/libcommon.o
 .text.genimg_get_type_id
                0x0000000000000000       0x18 common/libcommon.o
 .text.genimg_get_comp_id
                0x0000000000000000       0x18 common/libcommon.o
 .text.lcd_set_flush_dcache
                0x0000000000000000       0x18 common/libcommon.o
 .text.console_scrollup
                0x0000000000000000       0x90 common/libcommon.o
 .text.lcd_putc
                0x0000000000000000      0x164 common/libcommon.o
 .text.lcd_puts
                0x0000000000000000       0x3c common/libcommon.o
 .text.lcd_printf
                0x0000000000000000       0x38 common/libcommon.o
 .text.lcd_getfgcolor
                0x0000000000000000       0x10 common/libcommon.o
 .text.lcd_position_cursor
                0x0000000000000000       0x4c common/libcommon.o
 .text.lcd_get_pixel_width
                0x0000000000000000       0x10 common/libcommon.o
 .text.lcd_get_pixel_height
                0x0000000000000000       0x10 common/libcommon.o
 .text.lcd_get_screen_rows
                0x0000000000000000       0x14 common/libcommon.o
 .text.lcd_get_screen_columns
                0x0000000000000000       0x14 common/libcommon.o
 .text.hex1_bin
                0x0000000000000000       0x40 common/libcommon.o
 .text.hex2_bin
                0x0000000000000000       0x38 common/libcommon.o
 .text.srec_decode
                0x0000000000000000      0x258 common/libcommon.o
 .text.__splash_screen_prepare
                0x0000000000000000        0x8 common/libcommon.o
 .rodata.__FUNCTION__.7516
                0x0000000000000000       0x17 common/libcommon.o
 .data          0x0000000000000000        0x0 common/libcommon.o
 .data.mmap_threshold
                0x0000000000000000        0x4 common/libcommon.o
 .data.env_name_spec
                0x0000000000000000        0x4 common/libcommon.o
 .data.of_busses
                0x0000000000000000       0x14 common/libcommon.o
 .data.hash_algo
                0x0000000000000000       0x10 common/libcommon.o
 .bss           0x0000000000000000        0x0 common/libcommon.o
 .bss.n_mmaps_max
                0x0000000000000000        0x4 common/libcommon.o
 .bss.g_config_env_size
                0x0000000000000000        0x4 common/libcommon.o
 .bss.g_config_envbk_size
                0x0000000000000000        0x4 common/libcommon.o
 .bss.g_config_env_offset
                0x0000000000000000        0x4 common/libcommon.o
 .bss.g_config_envbk_offset
                0x0000000000000000        0x4 common/libcommon.o
 .bss.save_addr
                0x0000000000000000        0x4 common/libcommon.o
 .bss.save_size
                0x0000000000000000        0x4 common/libcommon.o
 .text          0x0000000000000000        0x0 disk/libdisk.o
 .data          0x0000000000000000        0x0 disk/libdisk.o
 .bss           0x0000000000000000        0x0 disk/libdisk.o
 .text          0x0000000000000000        0x0 drivers/gpio/libgpio.o
 .text.gpio_assert_legal
                0x0000000000000000       0x10 drivers/gpio/libgpio.o
 .text.gpio_free
                0x0000000000000000        0x8 drivers/gpio/libgpio.o
 .text.gpio_get_pin_level
                0x0000000000000000       0x4c drivers/gpio/libgpio.o
 .text.gpio_direction_input
                0x0000000000000000       0x14 drivers/gpio/libgpio.o
 .text.gpio_get_value
                0x0000000000000000        0xc drivers/gpio/libgpio.o
 .text.gpio_set_pull_up_r
                0x0000000000000000      0x114 drivers/gpio/libgpio.o
 .text.gpio_set_pull_down_r
                0x0000000000000000      0x114 drivers/gpio/libgpio.o
 .text.gpio_int_disableall
                0x0000000000000000       0x20 drivers/gpio/libgpio.o
 .text.gpio_init
                0x0000000000000000        0x4 drivers/gpio/libgpio.o
 .text.gpio_request
                0x0000000000000000       0x10 drivers/gpio/libgpio.o
 .text.gpio_int_restoreall
                0x0000000000000000       0x34 drivers/gpio/libgpio.o
 .rodata.gpio_pin_in_reg
                0x0000000000000000       0x10 drivers/gpio/libgpio.o
 .data          0x0000000000000000        0x0 drivers/gpio/libgpio.o
 .data.ak_gpio_attr
                0x0000000000000000     0x1ae8 drivers/gpio/libgpio.o
 .bss           0x0000000000000000        0x0 drivers/gpio/libgpio.o
 .bss.gpio_pin_intp
                0x0000000000000000       0x10 drivers/gpio/libgpio.o
 .bss.gpio_pin_inte
                0x0000000000000000       0x10 drivers/gpio/libgpio.o
 .text          0x0000000000000000        0x0 drivers/input/libinput.o
 .text.create_keymap
                0x0000000000000000       0xb0 drivers/input/libinput.o
 .text.key_matrix_decode
                0x0000000000000000       0xec drivers/input/libinput.o
 .text.key_matrix_decode_fdt
                0x0000000000000000       0xc4 drivers/input/libinput.o
 .text.key_matrix_init
                0x0000000000000000       0x3c drivers/input/libinput.o
 .rodata.str1.1
                0x0000000000000000       0x1d drivers/input/libinput.o
 .data          0x0000000000000000        0x0 drivers/input/libinput.o
 .bss           0x0000000000000000        0x0 drivers/input/libinput.o
 .comment       0x0000000000000000       0x33 drivers/input/libinput.o
 .note.GNU-stack
                0x0000000000000000        0x0 drivers/input/libinput.o
 .ARM.attributes
                0x0000000000000000       0x2b drivers/input/libinput.o
 .debug_aranges
                0x0000000000000000       0x38 drivers/input/libinput.o
 .debug_info    0x0000000000000000      0x8c5 drivers/input/libinput.o
 .debug_abbrev  0x0000000000000000      0x29a drivers/input/libinput.o
 .debug_line    0x0000000000000000      0x259 drivers/input/libinput.o
 .debug_frame   0x0000000000000000       0x98 drivers/input/libinput.o
 .debug_str     0x0000000000000000      0x4f7 drivers/input/libinput.o
 .debug_loc     0x0000000000000000      0x569 drivers/input/libinput.o
 .debug_ranges  0x0000000000000000       0x28 drivers/input/libinput.o
 .text          0x0000000000000000        0x0 drivers/mmc/libmmc.o
 .text.mmc_send_op_cond
                0x0000000000000000       0x74 drivers/mmc/libmmc.o
 .text.__def_mmc_init
                0x0000000000000000        0x8 drivers/mmc/libmmc.o
 .text.mmc_set_preinit
                0x0000000000000000        0x8 drivers/mmc/libmmc.o
 .data          0x0000000000000000        0x0 drivers/mmc/libmmc.o
 .bss           0x0000000000000000        0x0 drivers/mmc/libmmc.o
 .bss.g_pCurSdDevice
                0x0000000000000000        0x4 drivers/mmc/libmmc.o
 .bss.g_mmc_plug_gpio_index
                0x0000000000000000        0x4 drivers/mmc/libmmc.o
 .bss.g_mmc_plug_mod
                0x0000000000000000        0x4 drivers/mmc/libmmc.o
 .text          0x0000000000000000        0x0 drivers/mtd/libmtd.o
 .text.del_mtd_device
                0x0000000000000000       0x54 drivers/mtd/libmtd.o
 .text.get_mtd_device
                0x0000000000000000       0x74 drivers/mtd/libmtd.o
 .text.put_mtd_device
                0x0000000000000000       0x2c drivers/mtd/libmtd.o
 .text.mtd_erase
                0x0000000000000000       0x90 drivers/mtd/libmtd.o
 .text.mtd_read
                0x0000000000000000       0xb8 drivers/mtd/libmtd.o
 .text.mtd_write
                0x0000000000000000       0x9c drivers/mtd/libmtd.o
 .text.mtd_panic_write
                0x0000000000000000       0xa0 drivers/mtd/libmtd.o
 .text.mtd_read_oob
                0x0000000000000000       0x28 drivers/mtd/libmtd.o
 .text.mtd_get_fact_prot_info
                0x0000000000000000       0x28 drivers/mtd/libmtd.o
 .text.mtd_read_fact_prot_reg
                0x0000000000000000       0x44 drivers/mtd/libmtd.o
 .text.mtd_get_user_prot_info
                0x0000000000000000       0x28 drivers/mtd/libmtd.o
 .text.mtd_read_user_prot_reg
                0x0000000000000000       0x44 drivers/mtd/libmtd.o
 .text.mtd_write_user_prot_reg
                0x0000000000000000       0x44 drivers/mtd/libmtd.o
 .text.mtd_lock_user_prot_reg
                0x0000000000000000       0x2c drivers/mtd/libmtd.o
 .text.mtd_lock
                0x0000000000000000       0x74 drivers/mtd/libmtd.o
 .text.mtd_unlock
                0x0000000000000000       0x74 drivers/mtd/libmtd.o
 .text.mtd_block_isbad
                0x0000000000000000       0x4c drivers/mtd/libmtd.o
 .text.mtd_block_markbad
                0x0000000000000000       0x60 drivers/mtd/libmtd.o
 .text.part_write_oob
                0x0000000000000000       0xa0 drivers/mtd/libmtd.o
 .text.part_sync
                0x0000000000000000       0x14 drivers/mtd/libmtd.o
 .text.part_block_isbad
                0x0000000000000000       0x1c drivers/mtd/libmtd.o
 .text.part_block_markbad
                0x0000000000000000       0x30 drivers/mtd/libmtd.o
 .text.part_unlock
                0x0000000000000000       0x1c drivers/mtd/libmtd.o
 .text.part_lock
                0x0000000000000000       0x1c drivers/mtd/libmtd.o
 .text.part_get_fact_prot_info
                0x0000000000000000        0x8 drivers/mtd/libmtd.o
 .text.part_get_user_prot_info
                0x0000000000000000        0x8 drivers/mtd/libmtd.o
 .text.part_lock_user_prot_reg
                0x0000000000000000        0x8 drivers/mtd/libmtd.o
 .text.part_write_user_prot_reg
                0x0000000000000000        0x8 drivers/mtd/libmtd.o
 .text.part_read_fact_prot_reg
                0x0000000000000000        0x8 drivers/mtd/libmtd.o
 .text.part_read_user_prot_reg
                0x0000000000000000        0x8 drivers/mtd/libmtd.o
 .text.part_read_oob
                0x0000000000000000       0x94 drivers/mtd/libmtd.o
 .text.part_write
                0x0000000000000000       0x1c drivers/mtd/libmtd.o
 .text.part_read
                0x0000000000000000       0x74 drivers/mtd/libmtd.o
 .text.part_erase
                0x0000000000000000       0x6c drivers/mtd/libmtd.o
 .text.mtd_erase_callback
                0x0000000000000000       0x68 drivers/mtd/libmtd.o
 .text.del_mtd_partitions
                0x0000000000000000       0x8c drivers/mtd/libmtd.o
 .text.add_mtd_partitions
                0x0000000000000000      0x620 drivers/mtd/libmtd.o
 .rodata.__FUNCTION__.7086
                0x0000000000000000       0x12 drivers/mtd/libmtd.o
 .data          0x0000000000000000        0x0 drivers/mtd/libmtd.o
 .bss           0x0000000000000000        0x0 drivers/mtd/libmtd.o
 .bss.mtd_partitions
                0x0000000000000000        0x8 drivers/mtd/libmtd.o
 .text          0x0000000000000000        0x0 drivers/mtd/spi/libspi_flash.o
 .text.spi_flash_cmd_id
                0x0000000000000000        0x4 drivers/mtd/spi/libspi_flash.o
 .text.set_feature
                0x0000000000000000       0x68 drivers/mtd/spi/libspi_flash.o
 .text.get_feature
                0x0000000000000000       0x50 drivers/mtd/spi/libspi_flash.o
 .text.wait_cmd_finish
                0x0000000000000000       0x5c drivers/mtd/spi/libspi_flash.o
 .text.spinand_IsInit
                0x0000000000000000       0x10 drivers/mtd/spi/libspi_flash.o
 .text.write_enable_spinand
                0x0000000000000000       0x28 drivers/mtd/spi/libspi_flash.o
 .text.write_disable_spinand
                0x0000000000000000       0x28 drivers/mtd/spi/libspi_flash.o
 .text.spi_nand_erase
                0x0000000000000000       0xc0 drivers/mtd/spi/libspi_flash.o
 .text.spinand_flash_erase_inter
                0x0000000000000000       0xb0 drivers/mtd/spi/libspi_flash.o
 .text.ecc_ctl  0x0000000000000000       0x60 drivers/mtd/spi/libspi_flash.o
 .text.spi_nand_read_noecc
                0x0000000000000000      0x16c drivers/mtd/spi/libspi_flash.o
 .text.spinand_isbadblock
                0x0000000000000000       0xa4 drivers/mtd/spi/libspi_flash.o
 .text.spi_nand_read
                0x0000000000000000      0x1b0 drivers/mtd/spi/libspi_flash.o
 .text.spinand_flash_read_inter
                0x0000000000000000      0x148 drivers/mtd/spi/libspi_flash.o
 .text.spi_nand_write
                0x0000000000000000      0x12c drivers/mtd/spi/libspi_flash.o
 .text.spinand_flash_write_inter
                0x0000000000000000      0x19c drivers/mtd/spi/libspi_flash.o
 .text.spinand_setbadblock
                0x0000000000000000       0xe8 drivers/mtd/spi/libspi_flash.o
 .text.spinand_flash_read_oob
                0x0000000000000000       0xdc drivers/mtd/spi/libspi_flash.o
 .text.spinand_set_no_protection
                0x0000000000000000       0x2c drivers/mtd/spi/libspi_flash.o
 .text.spinand_flash_probe
                0x0000000000000000      0x3c4 drivers/mtd/spi/libspi_flash.o
 .text.spinand_flash_free
                0x0000000000000000       0x1c drivers/mtd/spi/libspi_flash.o
 .text.spinand_erase_partition
                0x0000000000000000       0xe4 drivers/mtd/spi/libspi_flash.o
 .text.spinand_read_partition
                0x0000000000000000      0x184 drivers/mtd/spi/libspi_flash.o
 .text.spinand_read_partition_with_oob
                0x0000000000000000      0x1ac drivers/mtd/spi/libspi_flash.o
 .text.spinand_write_partition
                0x0000000000000000      0x1c4 drivers/mtd/spi/libspi_flash.o
 .text.spinand_write_partition_with_oob
                0x0000000000000000      0x1f8 drivers/mtd/spi/libspi_flash.o
 .text.spi_flash_xmc_clean_ebl_bit
                0x0000000000000000       0x88 drivers/mtd/spi/libspi_flash.o
 .text.spi_flash_quad_mode_disable
                0x0000000000000000       0x68 drivers/mtd/spi/libspi_flash.o
 .text.spi_flash_cmd_write_ops
                0x0000000000000000       0xf0 drivers/mtd/spi/libspi_flash.o
 .text.spi_flash_cmd_read_ops
                0x0000000000000000      0x110 drivers/mtd/spi/libspi_flash.o
 .rodata.feature_cmd
                0x0000000000000000        0xc drivers/mtd/spi/libspi_flash.o
 .data          0x0000000000000000        0x0 drivers/mtd/spi/libspi_flash.o
 .data.ak_spinand_param_supportlist
                0x0000000000000000      0x3f4 drivers/mtd/spi/libspi_flash.o
 .bss           0x0000000000000000        0x0 drivers/mtd/spi/libspi_flash.o
 .bss.g_spiflash_parm
                0x0000000000000000       0x3c drivers/mtd/spi/libspi_flash.o
 .bss.g_spinand_init_flag
                0x0000000000000000        0x1 drivers/mtd/spi/libspi_flash.o
 .text          0x0000000000000000        0x0 drivers/net/libnet.o
 .data          0x0000000000000000        0x0 drivers/net/libnet.o
 .data.synopGMAC_wakeup_filter_config3
                0x0000000000000000       0x20 drivers/net/libnet.o
 .bss           0x0000000000000000        0x0 drivers/net/libnet.o
 .bss.rfdbasepa
                0x0000000000000000        0x4 drivers/net/libnet.o
 .bss.g_update  0x0000000000000000        0x1 drivers/net/libnet.o
 .bss.rfd_sequenceva
                0x0000000000000000        0x4 drivers/net/libnet.o
 .bss.g_rrdconsumerindex
                0x0000000000000000        0x4 drivers/net/libnet.o
 .bss.rfd_sequence
                0x0000000000000000        0x4 drivers/net/libnet.o
 .bss.tpdbufaddressVa
                0x0000000000000000        0x4 drivers/net/libnet.o
 .bss.tpdbufaddressPa
                0x0000000000000000        0x4 drivers/net/libnet.o
 .bss.rfdbaseva
                0x0000000000000000        0x4 drivers/net/libnet.o
 .bss.tpdaddressVa
                0x0000000000000000        0x4 drivers/net/libnet.o
 .bss.RingbufPa
                0x0000000000000000        0x4 drivers/net/libnet.o
 .bss.tpdaddress
                0x0000000000000000        0x4 drivers/net/libnet.o
 .bss.rrdaddressVa
                0x0000000000000000        0x4 drivers/net/libnet.o
 .bss.g_rfdconsumerindex
                0x0000000000000000        0x4 drivers/net/libnet.o
 .bss.g_tpdconsumerindex
                0x0000000000000000        0x4 drivers/net/libnet.o
 .text          0x0000000000000000        0x0 drivers/pcmcia/libpcmcia.o
 .data          0x0000000000000000        0x0 drivers/pcmcia/libpcmcia.o
 .bss           0x0000000000000000        0x0 drivers/pcmcia/libpcmcia.o
 .comment       0x0000000000000000       0x66 drivers/pcmcia/libpcmcia.o
 .note.GNU-stack
                0x0000000000000000        0x0 drivers/pcmcia/libpcmcia.o
 .ARM.attributes
                0x0000000000000000       0x2b drivers/pcmcia/libpcmcia.o
 .debug_aranges
                0x0000000000000000       0x30 drivers/pcmcia/libpcmcia.o
 .debug_info    0x0000000000000000      0x502 drivers/pcmcia/libpcmcia.o
 .debug_abbrev  0x0000000000000000      0x1aa drivers/pcmcia/libpcmcia.o
 .debug_line    0x0000000000000000      0x256 drivers/pcmcia/libpcmcia.o
 .debug_str     0x0000000000000000      0x641 drivers/pcmcia/libpcmcia.o
 .text          0x0000000000000000        0x0 drivers/rtc/librtc.o
 .data          0x0000000000000000        0x0 drivers/rtc/librtc.o
 .bss           0x0000000000000000        0x0 drivers/rtc/librtc.o
 .comment       0x0000000000000000       0x33 drivers/rtc/librtc.o
 .note.GNU-stack
                0x0000000000000000        0x0 drivers/rtc/librtc.o
 .ARM.attributes
                0x0000000000000000       0x2b drivers/rtc/librtc.o
 .debug_aranges
                0x0000000000000000       0x18 drivers/rtc/librtc.o
 .debug_info    0x0000000000000000      0x281 drivers/rtc/librtc.o
 .debug_abbrev  0x0000000000000000       0xd5 drivers/rtc/librtc.o
 .debug_line    0x0000000000000000      0x12b drivers/rtc/librtc.o
 .debug_str     0x0000000000000000      0x316 drivers/rtc/librtc.o
 .text          0x0000000000000000        0x0 drivers/serial/libserial.o
 .text._serial_setbrg
                0x0000000000000000        0x4 drivers/serial/libserial.o
 .text.serial_reinit_all
                0x0000000000000000       0x2c drivers/serial/libserial.o
 .text.default_serial_puts
                0x0000000000000000       0x30 drivers/serial/libserial.o
 .data          0x0000000000000000        0x0 drivers/serial/libserial.o
 .bss           0x0000000000000000        0x0 drivers/serial/libserial.o
 .text          0x0000000000000000        0x0 drivers/spi/libspi.o
 .text.spi_init
                0x0000000000000000        0x4 drivers/spi/libspi.o
 .text.spi_cs_deactivate
                0x0000000000000000       0x18 drivers/spi/libspi.o
 .text.ak_spi_txrx
                0x0000000000000000       0x18 drivers/spi/libspi.o
 .text.spi_cs_is_valid
                0x0000000000000000        0x8 drivers/spi/libspi.o
 .data          0x0000000000000000        0x0 drivers/spi/libspi.o
 .bss           0x0000000000000000        0x0 drivers/spi/libspi.o
 .text          0x0000000000000000        0x0 drivers/video/libvideo.o
 .text.get_peri_pll_freq
                0x0000000000000000       0x60 drivers/video/libvideo.o
 .text.lcd_setcolreg
                0x0000000000000000        0x4 drivers/video/libvideo.o
 .data          0x0000000000000000        0x0 drivers/video/libvideo.o
 .bss           0x0000000000000000        0x0 drivers/video/libvideo.o
 .text          0x0000000000000000        0x0 drivers/watchdog/libwatchdog.o
 .data          0x0000000000000000        0x0 drivers/watchdog/libwatchdog.o
 .bss           0x0000000000000000        0x0 drivers/watchdog/libwatchdog.o
 .text          0x0000000000000000        0x0 fs/fat/libfat.o
 .text.fat_register_device
                0x0000000000000000       0x88 fs/fat/libfat.o
 .text.file_fat_read
                0x0000000000000000       0x14 fs/fat/libfat.o
 .text.file_getfsname
                0x0000000000000000       0x18 fs/fat/libfat.o
 .text.file_cd  0x0000000000000000      0x1c4 fs/fat/libfat.o
 .text.file_detectfs
                0x0000000000000000       0x40 fs/fat/libfat.o
 .text.file_ls  0x0000000000000000       0x98 fs/fat/libfat.o
 .text.file_read
                0x0000000000000000       0xa4 fs/fat/libfat.o
 .rodata.filesystems
                0x0000000000000000       0x18 fs/fat/libfat.o
 .data          0x0000000000000000        0x0 fs/fat/libfat.o
 .data.file_cwd
                0x0000000000000000      0x200 fs/fat/libfat.o
 .data.current_filesystem
                0x0000000000000000        0x4 fs/fat/libfat.o
 .bss           0x0000000000000000        0x0 fs/fat/libfat.o
 .text          0x0000000000000000        0x0 fs/libfs.o
 .text.fs_write
                0x0000000000000000       0x84 fs/libfs.o
 .text.do_save  0x0000000000000000      0x128 fs/libfs.o
 .data          0x0000000000000000        0x0 fs/libfs.o
 .bss           0x0000000000000000        0x0 fs/libfs.o
 .text          0x0000000000000000        0x0 lib/libfdt/libfdt.o
 .text.fdt_first_subnode
                0x0000000000000000       0x34 lib/libfdt/libfdt.o
 .text.fdt_next_subnode
                0x0000000000000000       0x50 lib/libfdt/libfdt.o
 .text.fdt_create_empty_tree
                0x0000000000000000       0x74 lib/libfdt/libfdt.o
 .text.fdt_subnode_offset
                0x0000000000000000       0x30 lib/libfdt/libfdt.o
 .text.fdt_getprop_by_offset
                0x0000000000000000       0x5c lib/libfdt/libfdt.o
 .text.fdt_get_phandle
                0x0000000000000000       0x84 lib/libfdt/libfdt.o
 .text.fdt_get_alias
                0x0000000000000000       0x28 lib/libfdt/libfdt.o
 .text.fdt_get_path
                0x0000000000000000      0x138 lib/libfdt/libfdt.o
 .text.fdt_parent_offset
                0x0000000000000000       0x30 lib/libfdt/libfdt.o
 .text.fdt_node_offset_by_prop_value
                0x0000000000000000       0x9c lib/libfdt/libfdt.o
 .text.fdt_node_offset_by_phandle
                0x0000000000000000       0x78 lib/libfdt/libfdt.o
 .text.fdt_set_name
                0x0000000000000000       0x88 lib/libfdt/libfdt.o
 .text.fdt_appendprop
                0x0000000000000000       0xe4 lib/libfdt/libfdt.o
 .text.fdt_pack
                0x0000000000000000       0xac lib/libfdt/libfdt.o
 .text._fdt_sw_check_header
                0x0000000000000000       0x34 lib/libfdt/libfdt.o
 .text._fdt_grab_space
                0x0000000000000000       0xc8 lib/libfdt/libfdt.o
 .text.fdt_create
                0x0000000000000000       0x78 lib/libfdt/libfdt.o
 .text.fdt_add_reservemap_entry
                0x0000000000000000      0x12c lib/libfdt/libfdt.o
 .text.fdt_finish_reservemap
                0x0000000000000000       0x1c lib/libfdt/libfdt.o
 .text.fdt_begin_node
                0x0000000000000000       0x68 lib/libfdt/libfdt.o
 .text.fdt_end_node
                0x0000000000000000       0x40 lib/libfdt/libfdt.o
 .text.fdt_property
                0x0000000000000000      0x1b8 lib/libfdt/libfdt.o
 .text.fdt_finish
                0x0000000000000000      0x1dc lib/libfdt/libfdt.o
 .text.fdt_setprop_inplace
                0x0000000000000000       0x44 lib/libfdt/libfdt.o
 .text.fdt_nop_property
                0x0000000000000000       0x40 lib/libfdt/libfdt.o
 .text.fdt_nop_node
                0x0000000000000000       0x50 lib/libfdt/libfdt.o
 .text.fdt_find_regions
                0x0000000000000000      0x3f8 lib/libfdt/libfdt.o
 .data          0x0000000000000000        0x0 lib/libfdt/libfdt.o
 .bss           0x0000000000000000        0x0 lib/libfdt/libfdt.o
 .text          0x0000000000000000        0x0 lib/libgeneric.o
 .text.crc_GenTable32
                0x0000000000000000       0xac lib/libgeneric.o
 .text.crc32_new
                0x0000000000000000       0x40 lib/libgeneric.o
 .text.crc32_wd_buf
                0x0000000000000000       0x54 lib/libgeneric.o
 .text.crc7     0x0000000000000000       0x24 lib/libgeneric.o
 .text.display_options
                0x0000000000000000       0x20 lib/libgeneric.o
 .text.fdtdec_get_compatible
                0x0000000000000000       0x10 lib/libgeneric.o
 .text.fdtdec_get_addr_size
                0x0000000000000000       0x88 lib/libgeneric.o
 .text.fdtdec_get_addr
                0x0000000000000000        0x8 lib/libgeneric.o
 .text.fdtdec_get_uint64
                0x0000000000000000       0x7c lib/libgeneric.o
 .text.fdtdec_lookup
                0x0000000000000000       0x4c lib/libgeneric.o
 .text.fdtdec_next_compatible_subnode
                0x0000000000000000       0x68 lib/libgeneric.o
 .text.fdtdec_next_alias
                0x0000000000000000       0x94 lib/libgeneric.o
 .text.fdtdec_add_aliases_for_id
                0x0000000000000000      0x288 lib/libgeneric.o
 .text.fdtdec_find_aliases_for_id
                0x0000000000000000       0x44 lib/libgeneric.o
 .text.fdtdec_lookup_phandle
                0x0000000000000000       0x48 lib/libgeneric.o
 .text.fdtdec_locate_array
                0x0000000000000000       0x28 lib/libgeneric.o
 .text.fdtdec_decode_gpios
                0x0000000000000000       0xc0 lib/libgeneric.o
 .text.fdtdec_decode_gpio
                0x0000000000000000       0x30 lib/libgeneric.o
 .text.fdtdec_get_gpio
                0x0000000000000000       0x2c lib/libgeneric.o
 .text.fdtdec_set_gpio
                0x0000000000000000       0x20 lib/libgeneric.o
 .text.fdtdec_setup_gpio
                0x0000000000000000       0x34 lib/libgeneric.o
 .text.fdtdec_get_byte_array
                0x0000000000000000       0x40 lib/libgeneric.o
 .text.fdtdec_locate_byte_array
                0x0000000000000000       0x24 lib/libgeneric.o
 .text.fdtdec_get_config_bool
                0x0000000000000000       0x44 lib/libgeneric.o
 .text.fdtdec_decode_region
                0x0000000000000000       0x7c lib/libgeneric.o
 .text.initcall_run_list
                0x0000000000000000       0x2c lib/libgeneric.o
 .text.ldiv     0x0000000000000000       0x50 lib/libgeneric.o
 .text.lmb_dump_all
                0x0000000000000000        0x4 lib/libgeneric.o
 .text.lmb_is_reserved
                0x0000000000000000       0x5c lib/libgeneric.o
 .text.__arch_lmb_reserve
                0x0000000000000000        0x4 lib/libgeneric.o
 .text.strncasecmp
                0x0000000000000000       0x9c lib/libgeneric.o
 .text.strcasecmp
                0x0000000000000000        0x8 lib/libgeneric.o
 .text.strcat   0x0000000000000000       0x30 lib/libgeneric.o
 .text.strncat  0x0000000000000000       0x54 lib/libgeneric.o
 .text.strrchr  0x0000000000000000       0x3c lib/libgeneric.o
 .text.strsep   0x0000000000000000       0x38 lib/libgeneric.o
 .text.strswab  0x0000000000000000       0x48 lib/libgeneric.o
 .text.bcopy    0x0000000000000000       0x24 lib/libgeneric.o
 .text.memscan  0x0000000000000000       0x2c lib/libgeneric.o
 .text.memchr_inv
                0x0000000000000000      0x130 lib/libgeneric.o
 .text.strmhz   0x0000000000000000       0x6c lib/libgeneric.o
 .text.ustrtoul
                0x0000000000000000       0x70 lib/libgeneric.o
 .text.ustrtoull
                0x0000000000000000       0x88 lib/libgeneric.o
 .text.__assert_fail
                0x0000000000000000       0x14 lib/libgeneric.o
 .text.print_grouped_ull
                0x0000000000000000       0x88 lib/libgeneric.o
 .rodata        0x0000000000000000       0x38 lib/libgeneric.o
 .rodata.crc7_syndrome_table
                0x0000000000000000      0x100 lib/libgeneric.o
 .data          0x0000000000000000        0x0 lib/libgeneric.o
 .bss           0x0000000000000000        0x0 lib/libgeneric.o
 .bss.crctable.6554
                0x0000000000000000      0x400 lib/libgeneric.o
 .bss.inited.6553
                0x0000000000000000        0x4 lib/libgeneric.o
 .text          0x0000000000000000        0x0 net/libnet.o
 .text.eth_get_dev_by_name
                0x0000000000000000       0x84 net/libnet.o
 .text.eth_get_dev_by_index
                0x0000000000000000       0x40 net/libnet.o
 .text.eth_unregister
                0x0000000000000000       0x8c net/libnet.o
 .text.net_get_udp_handler
                0x0000000000000000       0x10 net/libnet.o
 .text.net_set_arp_handler
                0x0000000000000000       0x20 net/libnet.o
 .text.VLAN_to_string
                0x0000000000000000       0x4c net/libnet.o
 .rodata.__FUNCTION__.7000
                0x0000000000000000       0x14 net/libnet.o
 .data          0x0000000000000000        0x0 net/libnet.o
 .data.TftpRRQTimeoutMSecs
                0x0000000000000000        0x4 net/libnet.o
 .bss           0x0000000000000000        0x0 net/libnet.o
 .bss.net_busy_flag
                0x0000000000000000        0x4 net/libnet.o
 .text.misc_init_r
                0x0000000000000000        0x8 board/anyka/anycloud_ak37e/libanycloud_ak37e.o
 .text.flash_print_info
                0x0000000000000000      0x120 board/anyka/anycloud_ak37e/libanycloud_ak37e.o
 .text.flash_erase
                0x0000000000000000       0xf0 board/anyka/anycloud_ak37e/libanycloud_ak37e.o
 .text.spinand_flash_init
                0x0000000000000000       0xd8 board/anyka/anycloud_ak37e/libanycloud_ak37e.o
 .text.enable_ao_module_wr_rd
                0x0000000000000000       0x14 board/anyka/anycloud_ak37e/libanycloud_ak37e.o
 .text.disable_ao_module_wr_rd
                0x0000000000000000       0x14 board/anyka/anycloud_ak37e/libanycloud_ak37e.o
 .text.wait_ao_module_rdy
                0x0000000000000000       0x14 board/anyka/anycloud_ak37e/libanycloud_ak37e.o
 .text.write_ao_module_reg
                0x0000000000000000       0x44 board/anyka/anycloud_ak37e/libanycloud_ak37e.o
 .text.read_ao_module_reg
                0x0000000000000000       0x40 board/anyka/anycloud_ak37e/libanycloud_ak37e.o
 .text.efuse_from_always_on_trimming_for_voltage_test
                0x0000000000000000       0x38 board/anyka/anycloud_ak37e/libanycloud_ak37e.o
 .text.efuse_read
                0x0000000000000000       0xc8 board/anyka/anycloud_ak37e/libanycloud_ak37e.o
 .text.spl_fdt_set_totalsize
                0x0000000000000000       0x20 board/anyka/anycloud_ak37e/libanycloud_ak37e.o
 .text.spl_fdt_check_header
                0x0000000000000000       0xc4 board/anyka/anycloud_ak37e/libanycloud_ak37e.o
 .text.spl_fdt_offset_ptr
                0x0000000000000000       0x8c board/anyka/anycloud_ak37e/libanycloud_ak37e.o
 .text.spl_fdt_next_tag
                0x0000000000000000      0x124 board/anyka/anycloud_ak37e/libanycloud_ak37e.o
 .text.spl_1_nextprop
                0x0000000000000000       0x5c board/anyka/anycloud_ak37e/libanycloud_ak37e.o
 .text.spl_1_fdt_check_node_offset
                0x0000000000000000       0x3c board/anyka/anycloud_ak37e/libanycloud_ak37e.o
 .text.spl_fdt_first_property_offset
                0x0000000000000000       0x20 board/anyka/anycloud_ak37e/libanycloud_ak37e.o
 .text.spl_1_fdt_check_prop_offset
                0x0000000000000000       0x3c board/anyka/anycloud_ak37e/libanycloud_ak37e.o
 .text.spl_fdt_next_property_offset
                0x0000000000000000       0x20 board/anyka/anycloud_ak37e/libanycloud_ak37e.o
 .text.spl_fdt_get_property_by_offset
                0x0000000000000000       0x7c board/anyka/anycloud_ak37e/libanycloud_ak37e.o
 .text.spl_fdt_string
                0x0000000000000000       0x28 board/anyka/anycloud_ak37e/libanycloud_ak37e.o
 .text.spl_fdt_get_property_namelen
                0x0000000000000000       0xb4 board/anyka/anycloud_ak37e/libanycloud_ak37e.o
 .text.spl_fdt_getprop_namelen
                0x0000000000000000       0x20 board/anyka/anycloud_ak37e/libanycloud_ak37e.o
 .text.spl_fdt_next_node
                0x0000000000000000       0xb8 board/anyka/anycloud_ak37e/libanycloud_ak37e.o
 .text.spl_fdt_subnode_offset_namelen
                0x0000000000000000       0xcc board/anyka/anycloud_ak37e/libanycloud_ak37e.o
 .text.spl_fdt_path_offset
                0x0000000000000000       0xd8 board/anyka/anycloud_ak37e/libanycloud_ak37e.o
 .text.spl_fdt_get_alias_namelen
                0x0000000000000000       0x48 board/anyka/anycloud_ak37e/libanycloud_ak37e.o
 .text.spl_fdt_getprop
                0x0000000000000000       0x3c board/anyka/anycloud_ak37e/libanycloud_ak37e.o
 .text.spl_fdt_get_property
                0x0000000000000000       0x3c board/anyka/anycloud_ak37e/libanycloud_ak37e.o
 .text.spl_fdt_setprop
                0x0000000000000000      0x1d4 board/anyka/anycloud_ak37e/libanycloud_ak37e.o
 .text.pare_str_form_env
                0x0000000000000000       0x78 board/anyka/anycloud_ak37e/libanycloud_ak37e.o
 .text.spl_fdt_chosen
                0x0000000000000000      0x314 board/anyka/anycloud_ak37e/libanycloud_ak37e.o
 .rodata.__func__.7335
                0x0000000000000000       0x1a board/anyka/anycloud_ak37e/libanycloud_ak37e.o
 .data          0x0000000000000000        0x0 board/anyka/anycloud_ak37e/libanycloud_ak37e.o
 .bss           0x0000000000000000        0x0 board/anyka/anycloud_ak37e/libanycloud_ak37e.o
 .text          0x0000000000000000        0x0 /home/leo/workspace/ruian_2wire/common/AK37E_SDK_V1.05_new/os/uboot/arch/arm/lib/eabi_compat.o
 .data          0x0000000000000000        0x0 /home/leo/workspace/ruian_2wire/common/AK37E_SDK_V1.05_new/os/uboot/arch/arm/lib/eabi_compat.o
 .bss           0x0000000000000000        0x0 /home/leo/workspace/ruian_2wire/common/AK37E_SDK_V1.05_new/os/uboot/arch/arm/lib/eabi_compat.o
 .text.__aeabi_unwind_cpp_pr0
                0x0000000000000000        0x4 /home/leo/workspace/ruian_2wire/common/AK37E_SDK_V1.05_new/os/uboot/arch/arm/lib/eabi_compat.o
 .text.__aeabi_unwind_cpp_pr1
                0x0000000000000000        0x4 /home/leo/workspace/ruian_2wire/common/AK37E_SDK_V1.05_new/os/uboot/arch/arm/lib/eabi_compat.o
 .data          0x0000000000000000        0x0 /opt/arm-anykav500-linux-uclibcgnueabi/bin/../lib/gcc/arm-anykav500-linux-uclibcgnueabi/4.9.4/libgcc.a(_udivsi3.o)
 .bss           0x0000000000000000        0x0 /opt/arm-anykav500-linux-uclibcgnueabi/bin/../lib/gcc/arm-anykav500-linux-uclibcgnueabi/4.9.4/libgcc.a(_udivsi3.o)
 .data          0x0000000000000000        0x0 /opt/arm-anykav500-linux-uclibcgnueabi/bin/../lib/gcc/arm-anykav500-linux-uclibcgnueabi/4.9.4/libgcc.a(_divsi3.o)
 .bss           0x0000000000000000        0x0 /opt/arm-anykav500-linux-uclibcgnueabi/bin/../lib/gcc/arm-anykav500-linux-uclibcgnueabi/4.9.4/libgcc.a(_divsi3.o)
 .data          0x0000000000000000        0x0 /opt/arm-anykav500-linux-uclibcgnueabi/bin/../lib/gcc/arm-anykav500-linux-uclibcgnueabi/4.9.4/libgcc.a(_lshrdi3.o)
 .bss           0x0000000000000000        0x0 /opt/arm-anykav500-linux-uclibcgnueabi/bin/../lib/gcc/arm-anykav500-linux-uclibcgnueabi/4.9.4/libgcc.a(_lshrdi3.o)
 .data          0x0000000000000000        0x0 /opt/arm-anykav500-linux-uclibcgnueabi/bin/../lib/gcc/arm-anykav500-linux-uclibcgnueabi/4.9.4/libgcc.a(_ashldi3.o)
 .bss           0x0000000000000000        0x0 /opt/arm-anykav500-linux-uclibcgnueabi/bin/../lib/gcc/arm-anykav500-linux-uclibcgnueabi/4.9.4/libgcc.a(_ashldi3.o)
 .data          0x0000000000000000        0x0 /opt/arm-anykav500-linux-uclibcgnueabi/bin/../lib/gcc/arm-anykav500-linux-uclibcgnueabi/4.9.4/libgcc.a(_aeabi_uldivmod.o)
 .bss           0x0000000000000000        0x0 /opt/arm-anykav500-linux-uclibcgnueabi/bin/../lib/gcc/arm-anykav500-linux-uclibcgnueabi/4.9.4/libgcc.a(_aeabi_uldivmod.o)
 .data          0x0000000000000000        0x0 /opt/arm-anykav500-linux-uclibcgnueabi/bin/../lib/gcc/arm-anykav500-linux-uclibcgnueabi/4.9.4/libgcc.a(_dvmd_lnx.o)
 .bss           0x0000000000000000        0x0 /opt/arm-anykav500-linux-uclibcgnueabi/bin/../lib/gcc/arm-anykav500-linux-uclibcgnueabi/4.9.4/libgcc.a(_dvmd_lnx.o)
 .data          0x0000000000000000        0x0 /opt/arm-anykav500-linux-uclibcgnueabi/bin/../lib/gcc/arm-anykav500-linux-uclibcgnueabi/4.9.4/libgcc.a(bpabi.o)
 .bss           0x0000000000000000        0x0 /opt/arm-anykav500-linux-uclibcgnueabi/bin/../lib/gcc/arm-anykav500-linux-uclibcgnueabi/4.9.4/libgcc.a(bpabi.o)
 .data          0x0000000000000000        0x0 /opt/arm-anykav500-linux-uclibcgnueabi/bin/../lib/gcc/arm-anykav500-linux-uclibcgnueabi/4.9.4/libgcc.a(_divdi3.o)
 .bss           0x0000000000000000        0x0 /opt/arm-anykav500-linux-uclibcgnueabi/bin/../lib/gcc/arm-anykav500-linux-uclibcgnueabi/4.9.4/libgcc.a(_divdi3.o)
 .ARM.extab     0x0000000000000000        0x0 /opt/arm-anykav500-linux-uclibcgnueabi/bin/../lib/gcc/arm-anykav500-linux-uclibcgnueabi/4.9.4/libgcc.a(_divdi3.o)
 .ARM.exidx     0x0000000000000000        0x8 /opt/arm-anykav500-linux-uclibcgnueabi/bin/../lib/gcc/arm-anykav500-linux-uclibcgnueabi/4.9.4/libgcc.a(_divdi3.o)
 .data          0x0000000000000000        0x0 /opt/arm-anykav500-linux-uclibcgnueabi/bin/../lib/gcc/arm-anykav500-linux-uclibcgnueabi/4.9.4/libgcc.a(_udivdi3.o)
 .bss           0x0000000000000000        0x0 /opt/arm-anykav500-linux-uclibcgnueabi/bin/../lib/gcc/arm-anykav500-linux-uclibcgnueabi/4.9.4/libgcc.a(_udivdi3.o)
 .ARM.extab     0x0000000000000000        0x0 /opt/arm-anykav500-linux-uclibcgnueabi/bin/../lib/gcc/arm-anykav500-linux-uclibcgnueabi/4.9.4/libgcc.a(_udivdi3.o)
 .ARM.exidx     0x0000000000000000        0x8 /opt/arm-anykav500-linux-uclibcgnueabi/bin/../lib/gcc/arm-anykav500-linux-uclibcgnueabi/4.9.4/libgcc.a(_udivdi3.o)

Memory Configuration

Name             Origin             Length             Attributes
*default*        0x0000000000000000 0xffffffffffffffff

Linker script and memory map

                0x0000000000000000                . = 0x0
                0x0000000000000000                . = ALIGN (0x4)

.text           0x0000000080dffe00    0x24d5c
 *(.__image_copy_start)
 .__image_copy_start
                0x0000000080dffe00        0x0 arch/arm/lib/libarm.o
                0x0000000080dffe00                __image_copy_start
 arch/arm/cpu/arm926ejs/start.o(.text*)
 .text          0x0000000080dffe00      0x58c arch/arm/cpu/arm926ejs/start.o
                0x0000000080dffe00                _NOR_BOOT_CFG
                0x0000000080dffe00                _start
                0x0000000080e00040                _TEXT_BASE
                0x0000000080e00044                _bss_start_ofs
                0x0000000080e00048                _bss_end_ofs
                0x0000000080e0004c                _end_ofs
                0x0000000080e00050                IRQ_STACK_START
                0x0000000080e00054                FIQ_STACK_START
                0x0000000080e00058                IRQ_STACK_START_IN
                0x0000000080e00084                c_runtime_cpu_setup
 *(.text*)
 .text.timer_init
                0x0000000080e0038c       0x20 arch/arm/cpu/arm926ejs/ak37e/libak37e.o
                0x0000000080e0038c                timer_init
 .text.get_ticks
                0x0000000080e003ac       0x54 arch/arm/cpu/arm926ejs/ak37e/libak37e.o
                0x0000000080e003ac                get_ticks
 .text.get_timer_masked
                0x0000000080e00400       0x1c arch/arm/cpu/arm926ejs/ak37e/libak37e.o
                0x0000000080e00400                get_timer_masked
 .text.get_timer
                0x0000000080e0041c       0x14 arch/arm/cpu/arm926ejs/ak37e/libak37e.o
                0x0000000080e0041c                get_timer
 .text.udelay_masked
                0x0000000080e00430       0xac arch/arm/cpu/arm926ejs/ak37e/libak37e.o
                0x0000000080e00430                udelay_masked
 .text.__udelay
                0x0000000080e004dc        0x4 arch/arm/cpu/arm926ejs/ak37e/libak37e.o
                0x0000000080e004dc                __udelay
 .text.clk_get_core_pll_freq
                0x0000000080e004e0       0x38 arch/arm/cpu/arm926ejs/ak37e/libak37e.o
                0x0000000080e004e0                clk_get_core_pll_freq
 .text.get_vclk
                0x0000000080e00518       0x28 arch/arm/cpu/arm926ejs/ak37e/libak37e.o
                0x0000000080e00518                get_vclk
 .text.get_asic_freq
                0x0000000080e00540       0x28 arch/arm/cpu/arm926ejs/ak37e/libak37e.o
                0x0000000080e00540                get_asic_freq
 .text.l2_frac_dma
                0x0000000080e00568       0xb0 arch/arm/cpu/arm926ejs/ak37e/libak37e.o
 .text.l2_get_addr
                0x0000000080e00618       0x60 arch/arm/cpu/arm926ejs/ak37e/libak37e.o
 .text.l2_cpu   0x0000000080e00678      0x21c arch/arm/cpu/arm926ejs/ak37e/libak37e.o
 .text.l2_init  0x0000000080e00894       0x50 arch/arm/cpu/arm926ejs/ak37e/libak37e.o
                0x0000000080e00894                l2_init
 .text.l2_get_status
                0x0000000080e008e4       0x34 arch/arm/cpu/arm926ejs/ak37e/libak37e.o
                0x0000000080e008e4                l2_get_status
 .text.l2_combuf_cpu
                0x0000000080e00918       0xf0 arch/arm/cpu/arm926ejs/ak37e/libak37e.o
                0x0000000080e00918                l2_combuf_cpu
 .text.l2_combuf_cpu_frac
                0x0000000080e00a08       0x20 arch/arm/cpu/arm926ejs/ak37e/libak37e.o
                0x0000000080e00a08                l2_combuf_cpu_frac
 .text.l2_combuf_dma
                0x0000000080e00a28      0x1f0 arch/arm/cpu/arm926ejs/ak37e/libak37e.o
                0x0000000080e00a28                l2_combuf_dma
 .text.l2_set_status
                0x0000000080e00c18       0x3c arch/arm/cpu/arm926ejs/ak37e/libak37e.o
                0x0000000080e00c18                l2_set_status
 .text.l2_clr_status
                0x0000000080e00c54       0x34 arch/arm/cpu/arm926ejs/ak37e/libak37e.o
                0x0000000080e00c54                l2_clr_status
 .text.l2_clear_dma
                0x0000000080e00c88      0x100 arch/arm/cpu/arm926ejs/ak37e/libak37e.o
 .text.l2_combuf_wait_dma_finish
                0x0000000080e00d88      0x168 arch/arm/cpu/arm926ejs/ak37e/libak37e.o
                0x0000000080e00d88                l2_combuf_wait_dma_finish
 .text.l2_alloc
                0x0000000080e00ef0      0x154 arch/arm/cpu/arm926ejs/ak37e/libak37e.o
                0x0000000080e00ef0                l2_alloc
 .text.l2_free  0x0000000080e01044       0xe4 arch/arm/cpu/arm926ejs/ak37e/libak37e.o
                0x0000000080e01044                l2_free
 .text.ak39_soft_reset
                0x0000000080e01128       0x68 arch/arm/cpu/arm926ejs/ak37e/libak37e.o
                0x0000000080e01128                ak39_soft_reset
 .text.ak_soft_reset
                0x0000000080e01190        0x4 arch/arm/cpu/arm926ejs/ak37e/libak37e.o
                0x0000000080e01190                ak_soft_reset
 .text.default_isr
                0x0000000080e01194       0x10 arch/arm/cpu/arm926ejs/ak37e/libak37e.o
 .text.ak_do_irq
                0x0000000080e011a4       0x18 arch/arm/cpu/arm926ejs/ak37e/libak37e.o
                0x0000000080e011a4                ak_do_irq
 .text.ak_irq_install_handler
                0x0000000080e011bc       0x34 arch/arm/cpu/arm926ejs/ak37e/libak37e.o
                0x0000000080e011bc                ak_irq_install_handler
 .text.ak_arch_interrupt_init
                0x0000000080e011f0       0x30 arch/arm/cpu/arm926ejs/ak37e/libak37e.o
                0x0000000080e011f0                ak_arch_interrupt_init
 .text.cleanup_before_linux
                0x0000000080e01220       0x20 arch/arm/cpu/arm926ejs/libarm926ejs.o
                0x0000000080e01220                cleanup_before_linux
 .text.flush_dcache_all
                0x0000000080e01240       0x14 arch/arm/cpu/arm926ejs/libarm926ejs.o
                0x0000000080e01240                flush_dcache_all
 .text.flush_dcache_range
                0x0000000080e01254       0x3c arch/arm/cpu/arm926ejs/libarm926ejs.o
                0x0000000080e01254                flush_dcache_range
 .text.flush_cache
                0x0000000080e01290        0x8 arch/arm/cpu/arm926ejs/libarm926ejs.o
                0x0000000080e01290                flush_cache
 .text.__l2_cache_disable
                0x0000000080e01298        0x4 arch/arm/cpu/arm926ejs/libarm926ejs.o
                0x0000000080e01298                l2_cache_disable
                0x0000000080e01298                __l2_cache_disable
 .text          0x0000000080e0129c       0xe8 arch/arm/lib/libarm.o
                0x0000000080e0129c                _main
                0x0000000080e01320                relocate_code
 .text.__arch_cpu_init
                0x0000000080e01384        0x8 arch/arm/lib/libarm.o
                0x0000000080e01384                arch_cpu_init
                0x0000000080e01384                __arch_cpu_init
 .text.display_banner
                0x0000000080e0138c       0x20 arch/arm/lib/libarm.o
 .text.init_baudrate
                0x0000000080e013ac       0x2c arch/arm/lib/libarm.o
 .text.mark_bootstage
                0x0000000080e013d8       0x14 arch/arm/lib/libarm.o
 .text.__coloured_LED_init
                0x0000000080e013ec        0x4 arch/arm/lib/libarm.o
                0x0000000080e013ec                coloured_LED_init
                0x0000000080e013ec                __coloured_LED_init
 .text.__red_led_on
                0x0000000080e013f0        0x4 arch/arm/lib/libarm.o
                0x0000000080e013f0                __red_led_on
                0x0000000080e013f0                red_led_on
 .text.__dram_init_banksize
                0x0000000080e013f4       0x1c arch/arm/lib/libarm.o
                0x0000000080e013f4                __dram_init_banksize
                0x0000000080e013f4                dram_init_banksize
 .text.__power_init_board
                0x0000000080e01410        0x8 arch/arm/lib/libarm.o
                0x0000000080e01410                __power_init_board
                0x0000000080e01410                power_init_board
 .text.board_init_f
                0x0000000080e01418      0x14c arch/arm/lib/libarm.o
                0x0000000080e01418                board_init_f
 .text.board_init_r
                0x0000000080e01564      0x180 arch/arm/lib/libarm.o
                0x0000000080e01564                board_init_r
 .text.boot_jump_linux
                0x0000000080e016e4       0xb8 arch/arm/lib/libarm.o
 .text.arch_lmb_reserve
                0x0000000080e0179c       0x24 arch/arm/lib/libarm.o
                0x0000000080e0179c                arch_lmb_reserve
 .text.setup_board_tags
                0x0000000080e017c0        0x4 arch/arm/lib/libarm.o
                0x0000000080e017c0                setup_board_tags
 .text.boot_prep_linux
                0x0000000080e017c4      0x10c arch/arm/lib/libarm.o
 .text.do_bootm_linux
                0x0000000080e018d0       0x5c arch/arm/lib/libarm.o
                0x0000000080e018d0                do_bootm_linux
 .text.interrupt_init
                0x0000000080e0192c       0x40 arch/arm/lib/libarm.o
                0x0000000080e0192c                interrupt_init
 .text.enable_interrupts
                0x0000000080e0196c       0x10 arch/arm/lib/libarm.o
                0x0000000080e0196c                enable_interrupts
 .text.disable_interrupts
                0x0000000080e0197c       0x1c arch/arm/lib/libarm.o
                0x0000000080e0197c                disable_interrupts
 .text.bad_mode
                0x0000000080e01998       0x10 arch/arm/lib/libarm.o
                0x0000000080e01998                bad_mode
 .text.show_regs
                0x0000000080e019a8      0x13c arch/arm/lib/libarm.o
                0x0000000080e019a8                show_regs
 .text.do_undefined_instruction
                0x0000000080e01ae4       0x20 arch/arm/lib/libarm.o
                0x0000000080e01ae4                do_undefined_instruction
 .text.do_software_interrupt
                0x0000000080e01b04       0x20 arch/arm/lib/libarm.o
                0x0000000080e01b04                do_software_interrupt
 .text.do_prefetch_abort
                0x0000000080e01b24       0x20 arch/arm/lib/libarm.o
                0x0000000080e01b24                do_prefetch_abort
 .text.do_data_abort
                0x0000000080e01b44       0x20 arch/arm/lib/libarm.o
                0x0000000080e01b44                do_data_abort
 .text.do_not_used
                0x0000000080e01b64       0x20 arch/arm/lib/libarm.o
                0x0000000080e01b64                do_not_used
 .text.do_fiq   0x0000000080e01b84       0x20 arch/arm/lib/libarm.o
                0x0000000080e01b84                do_fiq
 .text.do_reset
                0x0000000080e01ba4       0x34 arch/arm/lib/libarm.o
                0x0000000080e01ba4                do_reset
 .text.__enable_caches
                0x0000000080e01bd8        0x4 arch/arm/lib/libarm.o
                0x0000000080e01bd8                enable_caches
                0x0000000080e01bd8                __enable_caches
 .text.cp_delay
                0x0000000080e01bdc       0x30 arch/arm/lib/libarm.o
 .text.icache_disable
                0x0000000080e01c0c       0x1c arch/arm/lib/libarm.o
                0x0000000080e01c0c                icache_disable
 .text.dcache_disable
                0x0000000080e01c28       0x28 arch/arm/lib/libarm.o
                0x0000000080e01c28                dcache_disable
 .text.do_go_exec
                0x0000000080e01c50       0x10 common/libcommon.o
                0x0000000080e01c50                do_go_exec
 .text.do_go    0x0000000080e01c60       0x6c common/libcommon.o
 .text.__arch_preboot_os
                0x0000000080e01ccc        0x4 common/libcommon.o
                0x0000000080e01ccc                arch_preboot_os
 .text.do_bootm_states.isra.16.constprop.17
                0x0000000080e01cd0      0x8a4 common/libcommon.o
 .text.do_bootm
                0x0000000080e02574       0xf0 common/libcommon.o
                0x0000000080e02574                do_bootm
 .text.bootm_maybe_autostart
                0x0000000080e02664       0x78 common/libcommon.o
                0x0000000080e02664                bootm_maybe_autostart
 .text.do_fat_fsload
                0x0000000080e026dc       0x18 common/libcommon.o
                0x0000000080e026dc                do_fat_fsload
 .text.do_fat_ls
                0x0000000080e026f4       0x18 common/libcommon.o
 .text.do_fat_fsinfo
                0x0000000080e0270c       0x90 common/libcommon.o
 .text.fdt_valid
                0x0000000080e0279c       0xf8 common/libcommon.o
 .text.is_printable_string
                0x0000000080e02894       0x98 common/libcommon.o
 .text.print_data
                0x0000000080e0292c      0x184 common/libcommon.o
 .text.set_working_fdt_addr
                0x0000000080e02ab0       0x1c common/libcommon.o
                0x0000000080e02ab0                set_working_fdt_addr
 .text.do_fdt   0x0000000080e02acc     0x1044 common/libcommon.o
 .text.do_help  0x0000000080e03b10       0x48 common/libcommon.o
 .text.bin_data_init
                0x0000000080e03b58       0x2c common/libcommon.o
 .text.k_data_save
                0x0000000080e03b84       0x4c common/libcommon.o
 .text.k_data_restore
                0x0000000080e03bd0       0x4c common/libcommon.o
 .text.load_serial_ymodem
                0x0000000080e03c1c      0x108 common/libcommon.o
 .text.getcxmodem
                0x0000000080e03d24       0x20 common/libcommon.o
 .text.bin_data_char
                0x0000000080e03d44       0x2c common/libcommon.o
 .text.chk1.constprop.1
                0x0000000080e03d70       0x2c common/libcommon.o
 .text.s1_sendpacket.constprop.2
                0x0000000080e03d9c       0x50 common/libcommon.o
 .text.do_load_serial_bin
                0x0000000080e03dec      0x7dc common/libcommon.o
 .text.read_envbk_spec
                0x0000000080e045c8       0xb0 common/libcommon.o
                0x0000000080e045c8                read_envbk_spec
 .text.do_format
                0x0000000080e04678       0x20 common/libcommon.o
                0x0000000080e04678                do_format
 .text.do_mem_base
                0x0000000080e04698       0x40 common/libcommon.o
 .text.do_mem_mw
                0x0000000080e046d8       0xe4 common/libcommon.o
 .text.do_mem_cmp
                0x0000000080e047bc      0x15c common/libcommon.o
 .text.do_mem_loop
                0x0000000080e04918       0xec common/libcommon.o
 .text.do_mem_md
                0x0000000080e04a04       0xec common/libcommon.o
 .text.do_mem_cp
                0x0000000080e04af0      0x130 common/libcommon.o
 .text.do_mem_crc
                0x0000000080e04c20       0x9c common/libcommon.o
                0x0000000080e04c20                do_mem_crc
 .text.mod_mem.isra.3
                0x0000000080e04cbc      0x190 common/libcommon.o
 .text.do_mem_mm
                0x0000000080e04e4c        0x8 common/libcommon.o
 .text.do_mem_nm
                0x0000000080e04e54        0x8 common/libcommon.o
 .text.do_mmcops
                0x0000000080e04e5c      0x49c common/libcommon.o
 .text.do_mmcinfo
                0x0000000080e052f8      0x1b0 common/libcommon.o
 .text.part_delall
                0x0000000080e054a8       0x44 common/libcommon.o
 .text.memsize_parse
                0x0000000080e054ec       0x80 common/libcommon.o
 .text.memsize_format
                0x0000000080e0556c       0x94 common/libcommon.o
 .text.generate_mtdparts_save.constprop.7
                0x0000000080e05600      0x308 common/libcommon.o
 .text.device_delall.constprop.9
                0x0000000080e05908       0x64 common/libcommon.o
 .text.get_mtd_info.constprop.10
                0x0000000080e0596c       0x78 common/libcommon.o
 .text.part_validate
                0x0000000080e059e4      0x360 common/libcommon.o
 .text.device_find
                0x0000000080e05d44       0x4c common/libcommon.o
                0x0000000080e05d44                device_find
 .text.mtd_id_parse
                0x0000000080e05d90      0x11c common/libcommon.o
                0x0000000080e05d90                mtd_id_parse
 .text.mtd_part_info
                0x0000000080e05eac       0x98 common/libcommon.o
                0x0000000080e05eac                mtd_part_info
 .text.find_dev_and_part
                0x0000000080e05f44      0x1b0 common/libcommon.o
                0x0000000080e05f44                find_dev_and_part
 .text.index_partitions
                0x0000000080e060f4       0xbc common/libcommon.o
 .text.current_save
                0x0000000080e061b0       0xbc common/libcommon.o
 .text.mtd_devices_init
                0x0000000080e0626c       0x2c common/libcommon.o
 .text.device_del
                0x0000000080e06298       0x7c common/libcommon.o
 .text.part_sort_add
                0x0000000080e06314      0x11c common/libcommon.o
 .text.device_parse
                0x0000000080e06430      0x5e8 common/libcommon.o
 .text.mtdparts_init
                0x0000000080e06a18      0x678 common/libcommon.o
                0x0000000080e06a18                mtdparts_init
 .text.do_chpart
                0x0000000080e07090       0xd4 common/libcommon.o
 .text.do_mtdparts
                0x0000000080e07164      0x5ec common/libcommon.o
 .text.netboot_common
                0x0000000080e07750      0x2c4 common/libcommon.o
 .text.do_bootp
                0x0000000080e07a14        0xc common/libcommon.o
 .text.do_tftpb
                0x0000000080e07a20       0x40 common/libcommon.o
                0x0000000080e07a20                do_tftpb
 .text.do_ping  0x0000000080e07a60       0x7c common/libcommon.o
 .text.do_env_delete
                0x0000000080e07adc       0x9c common/libcommon.o
 .text.do_env_save
                0x0000000080e07b78       0x14 common/libcommon.o
 .text.do_env   0x0000000080e07b8c       0x64 common/libcommon.o
 .text.env_print
                0x0000000080e07bf0       0xc0 common/libcommon.o
 .text.do_env_print
                0x0000000080e07cb0       0xc8 common/libcommon.o
 .text.do_env_import
                0x0000000080e07d78      0x248 common/libcommon.o
 .text.do_env_default
                0x0000000080e07fc0       0xa8 common/libcommon.o
 .text._do_env_set.isra.0
                0x0000000080e08068      0x1b8 common/libcommon.o
 .text.do_env_set
                0x0000000080e08220       0x1c common/libcommon.o
 .text.get_env_id
                0x0000000080e0823c       0x10 common/libcommon.o
                0x0000000080e0823c                get_env_id
 .text.setenv   0x0000000080e0824c       0x58 common/libcommon.o
                0x0000000080e0824c                setenv
 .text.setenv_ulong
                0x0000000080e082a4       0x20 common/libcommon.o
                0x0000000080e082a4                setenv_ulong
 .text.setenv_hex
                0x0000000080e082c4       0x34 common/libcommon.o
                0x0000000080e082c4                setenv_hex
 .text.do_env_export
                0x0000000080e082f8      0x26c common/libcommon.o
 .text.envmatch
                0x0000000080e08564       0x6c common/libcommon.o
                0x0000000080e08564                envmatch
 .text.getenv_f
                0x0000000080e085d0       0xc8 common/libcommon.o
                0x0000000080e085d0                getenv_f
 .text.getenv   0x0000000080e08698       0x78 common/libcommon.o
                0x0000000080e08698                getenv
 .text.getenv_hex
                0x0000000080e08710       0x3c common/libcommon.o
                0x0000000080e08710                getenv_hex
 .text.getenv_ulong
                0x0000000080e0874c       0x30 common/libcommon.o
                0x0000000080e0874c                getenv_ulong
 .text.partitions_mtdparts_parse
                0x0000000080e0877c      0x1c8 common/libcommon.o
 .text.partitions_mtdparts_parse_by_envimg
                0x0000000080e08944       0x48 common/libcommon.o
 .text.partitions_mtdparts_parse_by_sdcard.isra.3
                0x0000000080e0898c       0x9c common/libcommon.o
 .text.upgrade_partitions_mtdparts.isra.4
                0x0000000080e08a28       0x14 common/libcommon.o
 .text.upgrade_progress_bar_draw.constprop.5
                0x0000000080e08a3c       0xe8 common/libcommon.o
 .text.do_sd_upgrade
                0x0000000080e08b24      0x618 common/libcommon.o
                0x0000000080e08b24                do_sd_upgrade
 .text.upgarde_file_partitions_check
                0x0000000080e0913c      0x128 common/libcommon.o
 .text.upgrade_file_data_partition_check
                0x0000000080e09264       0x10 common/libcommon.o
 .text.upgrade_file_tuya_partition_check
                0x0000000080e09274       0x10 common/libcommon.o
 .text.upgrade_file_app_partition_check
                0x0000000080e09284       0x10 common/libcommon.o
 .text.upgrade_file_usr_partition_check
                0x0000000080e09294       0x10 common/libcommon.o
 .text.upgrade_file_config_partition_check
                0x0000000080e092a4       0x10 common/libcommon.o
 .text.upgrade_file_rootfs_partition_check
                0x0000000080e092b4       0x10 common/libcommon.o
 .text.upgrade_file_logo_partition_check
                0x0000000080e092c4       0x10 common/libcommon.o
 .text.upgrade_file_uImage_partition_check
                0x0000000080e092d4       0x10 common/libcommon.o
 .text.upgrade_file_dtb_partition_check
                0x0000000080e092e4       0x10 common/libcommon.o
 .text.upgrade_file_envbkimg_partition_check
                0x0000000080e092f4       0x10 common/libcommon.o
 .text.upgrade_file_envimg_partition_check
                0x0000000080e09304       0x10 common/libcommon.o
 .text.upgarde_file_uboot_partition_check
                0x0000000080e09314       0x10 common/libcommon.o
 .text.do_spi_flash_probe
                0x0000000080e09324      0x18c common/libcommon.o
 .text.show_time
                0x0000000080e094b0       0xf4 common/libcommon.o
 .text.spi_test_next_stage
                0x0000000080e095a4       0x44 common/libcommon.o
 .text.do_spi_flash
                0x0000000080e095e8      0x7e8 common/libcommon.o
 .text.do_version
                0x0000000080e09dd0       0x38 common/libcommon.o
 .text.find_cmd_tbl
                0x0000000080e09e08       0xa4 common/libcommon.o
                0x0000000080e09e08                find_cmd_tbl
 .text.find_cmd
                0x0000000080e09eac       0x28 common/libcommon.o
                0x0000000080e09eac                find_cmd
 .text.cmd_usage
                0x0000000080e09ed4       0x60 common/libcommon.o
                0x0000000080e09ed4                cmd_usage
 .text._do_help
                0x0000000080e09f34      0x180 common/libcommon.o
                0x0000000080e09f34                _do_help
 .text.var_complete
                0x0000000080e0a0b4       0x7c common/libcommon.o
                0x0000000080e0a0b4                var_complete
 .text.cmd_auto_complete
                0x0000000080e0a130      0x470 common/libcommon.o
                0x0000000080e0a130                cmd_auto_complete
 .text.cmd_get_data_size
                0x0000000080e0a5a0       0x5c common/libcommon.o
                0x0000000080e0a5a0                cmd_get_data_size
 .text.cmd_process
                0x0000000080e0a5fc       0xbc common/libcommon.o
                0x0000000080e0a5fc                cmd_process
 .text.console_setfile
                0x0000000080e0a6b8       0xa4 common/libcommon.o
 .text.fgetc    0x0000000080e0a75c       0x24 common/libcommon.o
                0x0000000080e0a75c                fgetc
 .text.ftstc    0x0000000080e0a780       0x24 common/libcommon.o
                0x0000000080e0a780                ftstc
 .text.getc     0x0000000080e0a7a4       0x24 common/libcommon.o
                0x0000000080e0a7a4                getc
 .text.tstc     0x0000000080e0a7c8       0x24 common/libcommon.o
                0x0000000080e0a7c8                tstc
 .text.putc     0x0000000080e0a7ec       0x30 common/libcommon.o
                0x0000000080e0a7ec                putc
 .text.puts     0x0000000080e0a81c       0x30 common/libcommon.o
                0x0000000080e0a81c                puts
 .text.printf   0x0000000080e0a84c       0x4c common/libcommon.o
                0x0000000080e0a84c                printf
 .text.vprintf  0x0000000080e0a898       0x3c common/libcommon.o
                0x0000000080e0a898                vprintf
 .text.ctrlc    0x0000000080e0a8d4       0x58 common/libcommon.o
                0x0000000080e0a8d4                ctrlc
 .text.disable_ctrlc
                0x0000000080e0a92c       0x18 common/libcommon.o
                0x0000000080e0a92c                disable_ctrlc
 .text.had_ctrlc
                0x0000000080e0a944       0x10 common/libcommon.o
                0x0000000080e0a944                had_ctrlc
 .text.clear_ctrlc
                0x0000000080e0a954       0x14 common/libcommon.o
                0x0000000080e0a954                clear_ctrlc
 .text.search_device
                0x0000000080e0a968       0x28 common/libcommon.o
                0x0000000080e0a968                search_device
 .text.console_assign
                0x0000000080e0a990       0x48 common/libcommon.o
                0x0000000080e0a990                console_assign
 .text.on_console
                0x0000000080e0a9d8       0xc0 common/libcommon.o
 .text.console_init_f
                0x0000000080e0aa98       0x10 common/libcommon.o
                0x0000000080e0aa98                console_init_f
 .text.stdio_print_current_devices
                0x0000000080e0aaa8       0xb0 common/libcommon.o
                0x0000000080e0aaa8                stdio_print_current_devices
 .text.console_init_r
                0x0000000080e0ab58       0xe0 common/libcommon.o
                0x0000000080e0ab58                console_init_r
 .text.sbrk     0x0000000080e0ac38       0x70 common/libcommon.o
                0x0000000080e0ac38                sbrk
 .text.mem_malloc_init
                0x0000000080e0aca8       0x40 common/libcommon.o
                0x0000000080e0aca8                mem_malloc_init
 .text.malloc_trim
                0x0000000080e0ace8       0xcc common/libcommon.o
                0x0000000080e0ace8                malloc_trim
 .text.free     0x0000000080e0adb4      0x234 common/libcommon.o
                0x0000000080e0adb4                free
 .text.malloc   0x0000000080e0afe8      0x60c common/libcommon.o
                0x0000000080e0afe8                malloc
 .text.calloc   0x0000000080e0b5f4       0xd4 common/libcommon.o
                0x0000000080e0b5f4                calloc
 .text.memalign
                0x0000000080e0b6c8      0x10c common/libcommon.o
                0x0000000080e0b6c8                memalign
 .text.env_attr_walk
                0x0000000080e0b7d4      0x110 common/libcommon.o
                0x0000000080e0b7d4                env_attr_walk
 .text.env_attr_lookup
                0x0000000080e0b8e4      0x18c common/libcommon.o
                0x0000000080e0b8e4                env_attr_lookup
 .text.clear_callback
                0x0000000080e0ba70       0x10 common/libcommon.o
 .text.find_env_callback
                0x0000000080e0ba80       0x68 common/libcommon.o
 .text.on_callbacks
                0x0000000080e0bae8       0x48 common/libcommon.o
 .text.set_callback
                0x0000000080e0bb30       0x94 common/libcommon.o
 .text.env_callback_init
                0x0000000080e0bbc4       0xa0 common/libcommon.o
                0x0000000080e0bbc4                env_callback_init
 .text.__env_get_char_spec
                0x0000000080e0bc64        0xc common/libcommon.o
                0x0000000080e0bc64                env_get_char_spec
 .text.env_get_addr
                0x0000000080e0bc70       0x20 common/libcommon.o
                0x0000000080e0bc70                env_get_addr
 .text.env_get_char_memory
                0x0000000080e0bc90       0x10 common/libcommon.o
                0x0000000080e0bc90                env_get_char_memory
 .text.env_get_char
                0x0000000080e0bca0       0x30 common/libcommon.o
                0x0000000080e0bca0                env_get_char
 .text.getenv_yesno
                0x0000000080e0bcd0       0x40 common/libcommon.o
                0x0000000080e0bcd0                getenv_yesno
 .text.getenv_default
                0x0000000080e0bd10       0x30 common/libcommon.o
                0x0000000080e0bd10                getenv_default
 .text.set_default_env
                0x0000000080e0bd40       0xac common/libcommon.o
                0x0000000080e0bd40                set_default_env
 .text.set_default_vars
                0x0000000080e0bdec       0x38 common/libcommon.o
                0x0000000080e0bdec                set_default_vars
 .text.env_import
                0x0000000080e0be24      0x1d0 common/libcommon.o
                0x0000000080e0be24                env_import
 .text.env_relocate
                0x0000000080e0bff4       0x30 common/libcommon.o
                0x0000000080e0bff4                env_relocate
 .text.env_complete
                0x0000000080e0c024       0xe8 common/libcommon.o
                0x0000000080e0c024                env_complete
 .text.skip_num
                0x0000000080e0c10c       0x70 common/libcommon.o
 .text.clear_flags
                0x0000000080e0c17c       0x10 common/libcommon.o
 .text.on_flags
                0x0000000080e0c18c       0x48 common/libcommon.o
 .text.env_flags_parse_vartype
                0x0000000080e0c1d4       0x50 common/libcommon.o
                0x0000000080e0c1d4                env_flags_parse_vartype
 .text.env_flags_parse_varaccess
                0x0000000080e0c224       0x58 common/libcommon.o
                0x0000000080e0c224                env_flags_parse_varaccess
 .text.set_flags
                0x0000000080e0c27c       0xac common/libcommon.o
 .text.env_flags_init
                0x0000000080e0c328       0xb0 common/libcommon.o
                0x0000000080e0c328                env_flags_init
 .text.env_flags_validate
                0x0000000080e0c3d8      0x320 common/libcommon.o
                0x0000000080e0c3d8                env_flags_validate
 .text.saveenv  0x0000000080e0c6f8      0x190 common/libcommon.o
                0x0000000080e0c6f8                saveenv
 .text.env_relocate_spec
                0x0000000080e0c888       0xa4 common/libcommon.o
                0x0000000080e0c888                env_relocate_spec
 .text.env_init
                0x0000000080e0c92c       0x1c common/libcommon.o
                0x0000000080e0c92c                env_init
 .text.dummy    0x0000000080e0c948        0x4 common/libcommon.o
 .text.get_version
                0x0000000080e0c94c        0x8 common/libcommon.o
                0x0000000080e0c94c                get_version
 .text.jumptable_init
                0x0000000080e0c954      0x190 common/libcommon.o
                0x0000000080e0c954                jumptable_init
 .text.get_cells_len
                0x0000000080e0cae4       0x50 common/libcommon.o
 .text.fdt_initrd
                0x0000000080e0cb34      0x1e8 common/libcommon.o
                0x0000000080e0cb34                fdt_initrd
 .text.fdt_chosen
                0x0000000080e0cd1c      0x10c common/libcommon.o
                0x0000000080e0cd1c                fdt_chosen
 .text.fdt_fixup_memory_banks
                0x0000000080e0ce28      0x258 common/libcommon.o
                0x0000000080e0ce28                fdt_fixup_memory_banks
 .text.fdt_fixup_memory
                0x0000000080e0d080       0x20 common/libcommon.o
                0x0000000080e0d080                fdt_fixup_memory
 .text.fdt_resize
                0x0000000080e0d0a0      0x110 common/libcommon.o
                0x0000000080e0d0a0                fdt_resize
 .text.addr2info
                0x0000000080e0d1b0       0x4c common/libcommon.o
                0x0000000080e0d1b0                addr2info
 .text.flash_write
                0x0000000080e0d1fc      0x154 common/libcommon.o
                0x0000000080e0d1fc                flash_write
 .text.flash_perror
                0x0000000080e0d350       0xe8 common/libcommon.o
                0x0000000080e0d350                flash_perror
 .text.fdt_error
                0x0000000080e0d438       0x2c common/libcommon.o
 .text.boot_fdt_add_mem_rsv_regions
                0x0000000080e0d464       0x88 common/libcommon.o
                0x0000000080e0d464                boot_fdt_add_mem_rsv_regions
 .text.boot_relocate_fdt
                0x0000000080e0d4ec      0x18c common/libcommon.o
                0x0000000080e0d4ec                boot_relocate_fdt
 .text.boot_get_fdt
                0x0000000080e0d678      0x2c8 common/libcommon.o
                0x0000000080e0d678                boot_get_fdt
 .text.ft_verify_fdt
                0x0000000080e0d940        0x8 common/libcommon.o
                0x0000000080e0d940                ft_verify_fdt
 .text.image_setup_libfdt
                0x0000000080e0d948      0x110 common/libcommon.o
                0x0000000080e0d948                image_setup_libfdt
 .text.on_loadaddr
                0x0000000080e0da58       0x38 common/libcommon.o
 .text.image_check_hcrc
                0x0000000080e0da90       0x60 common/libcommon.o
                0x0000000080e0da90                image_check_hcrc
 .text.image_check_dcrc
                0x0000000080e0daf0       0x60 common/libcommon.o
                0x0000000080e0daf0                image_check_dcrc
 .text.image_multi_count
                0x0000000080e0db50       0x1c common/libcommon.o
                0x0000000080e0db50                image_multi_count
 .text.image_multi_getimg
                0x0000000080e0db6c       0xa8 common/libcommon.o
                0x0000000080e0db6c                image_multi_getimg
 .text.getenv_bootm_low
                0x0000000080e0dc14       0x30 common/libcommon.o
                0x0000000080e0dc14                getenv_bootm_low
 .text.getenv_bootm_size
                0x0000000080e0dc44       0x5c common/libcommon.o
                0x0000000080e0dc44                getenv_bootm_size
 .text.getenv_bootm_mapsize
                0x0000000080e0dca0       0x30 common/libcommon.o
                0x0000000080e0dca0                getenv_bootm_mapsize
 .text.memmove_wd
                0x0000000080e0dcd0        0xc common/libcommon.o
                0x0000000080e0dcd0                memmove_wd
 .text.genimg_print_size
                0x0000000080e0dcdc       0x30 common/libcommon.o
                0x0000000080e0dcdc                genimg_print_size
 .text.get_table_entry_name
                0x0000000080e0dd0c       0x2c common/libcommon.o
                0x0000000080e0dd0c                get_table_entry_name
 .text.genimg_get_os_name
                0x0000000080e0dd38       0x18 common/libcommon.o
                0x0000000080e0dd38                genimg_get_os_name
 .text.genimg_get_arch_name
                0x0000000080e0dd50       0x18 common/libcommon.o
                0x0000000080e0dd50                genimg_get_arch_name
 .text.genimg_get_type_name
                0x0000000080e0dd68       0x18 common/libcommon.o
                0x0000000080e0dd68                genimg_get_type_name
 .text.genimg_get_comp_name
                0x0000000080e0dd80       0x18 common/libcommon.o
                0x0000000080e0dd80                genimg_get_comp_name
 .text.image_print_contents
                0x0000000080e0dd98      0x1b0 common/libcommon.o
                0x0000000080e0dd98                image_print_contents
 .text.genimg_get_format
                0x0000000080e0df48       0x4c common/libcommon.o
                0x0000000080e0df48                genimg_get_format
 .text.genimg_get_image
                0x0000000080e0df94        0x4 common/libcommon.o
                0x0000000080e0df94                genimg_get_image
 .text.genimg_has_config
                0x0000000080e0df98        0x8 common/libcommon.o
                0x0000000080e0df98                genimg_has_config
 .text.boot_get_ramdisk
                0x0000000080e0dfa0      0x264 common/libcommon.o
                0x0000000080e0dfa0                boot_get_ramdisk
 .text.boot_ramdisk_high
                0x0000000080e0e204      0x130 common/libcommon.o
                0x0000000080e0e204                boot_ramdisk_high
 .text.image_setup_linux
                0x0000000080e0e334       0x8c common/libcommon.o
                0x0000000080e0e334                image_setup_linux
 .text.lcd_get_size
                0x0000000080e0e3c0       0x44 common/libcommon.o
                0x0000000080e0e3c0                lcd_get_size
 .text.lcd_sync
                0x0000000080e0e404       0x40 common/libcommon.o
                0x0000000080e0e404                lcd_sync
 .text.drv_lcd_init
                0x0000000080e0e444      0x12c common/libcommon.o
                0x0000000080e0e444                drv_lcd_init
 .text.lcd_clear
                0x0000000080e0e570       0x84 common/libcommon.o
                0x0000000080e0e570                lcd_clear
 .text.do_lcd_clear
                0x0000000080e0e5f4       0x10 common/libcommon.o
 .text.lcd_setmem
                0x0000000080e0e604       0x88 common/libcommon.o
                0x0000000080e0e604                lcd_setmem
 .text.delete_char.part.1
                0x0000000080e0e68c       0xd0 common/libcommon.o
 .text.cread_add_char
                0x0000000080e0e75c       0xe8 common/libcommon.o
 .text.__show_boot_progress
                0x0000000080e0e844        0x4 common/libcommon.o
                0x0000000080e0e844                __show_boot_progress
                0x0000000080e0e844                show_boot_progress
 .text.readline_into_buffer
                0x0000000080e0e848      0x9b0 common/libcommon.o
                0x0000000080e0e848                readline_into_buffer
 .text.readline
                0x0000000080e0f1f8       0x14 common/libcommon.o
                0x0000000080e0f1f8                readline
 .text.parse_line
                0x0000000080e0f20c       0x88 common/libcommon.o
                0x0000000080e0f20c                parse_line
 .text.builtin_run_command
                0x0000000080e0f294      0x344 common/libcommon.o
 .text.run_command
                0x0000000080e0f5d8       0x18 common/libcommon.o
                0x0000000080e0f5d8                run_command
 .text.run_command_list
                0x0000000080e0f5f0       0xec common/libcommon.o
                0x0000000080e0f5f0                run_command_list
 .text.main_loop
                0x0000000080e0f6dc      0x2dc common/libcommon.o
                0x0000000080e0f6dc                main_loop
 .text.do_run   0x0000000080e0f9b8       0x78 common/libcommon.o
                0x0000000080e0f9b8                do_run
 .text.get_ram_size
                0x0000000080e0fa30       0xe4 common/libcommon.o
                0x0000000080e0fa30                get_ram_size
 .text.img_data_cb
                0x0000000080e0fb14       0x6c common/libcommon.o
 .text.input_func
                0x0000000080e0fb80       0x68 common/libcommon.o
 .text.uboot_logo_sjpg_decode
                0x0000000080e0fbe8       0xac common/libcommon.o
                0x0000000080e0fbe8                uboot_logo_sjpg_decode
 .text.stdio_get_list
                0x0000000080e0fc94        0xc common/libcommon.o
                0x0000000080e0fc94                stdio_get_list
 .text.stdio_get_by_name
                0x0000000080e0fca0       0x5c common/libcommon.o
                0x0000000080e0fca0                stdio_get_by_name
 .text.stdio_clone
                0x0000000080e0fcfc       0x38 common/libcommon.o
                0x0000000080e0fcfc                stdio_clone
 .text.stdio_register
                0x0000000080e0fd34       0x3c common/libcommon.o
                0x0000000080e0fd34                stdio_register
 .text.stdio_init
                0x0000000080e0fd70       0x90 common/libcommon.o
                0x0000000080e0fd70                stdio_init
 .text.alloc_pool
                0x0000000080e0fe00       0x38 common/libcommon.o
 .text.bitext   0x0000000080e0fe38       0xe8 common/libcommon.o
 .text.huffext  0x0000000080e0ff20      0x158 common/libcommon.o
 .text.jd_prepare
                0x0000000080e10078      0x6e0 common/libcommon.o
                0x0000000080e10078                jd_prepare
 .text.jd_decomp
                0x0000000080e10758      0xc30 common/libcommon.o
                0x0000000080e10758                jd_decomp
 .text.CYGACC_COMM_IF_GETC_TIMEOUT.isra.0
                0x0000000080e11388       0x5c common/libcommon.o
 .text.xyzModem_flush
                0x0000000080e113e4       0x1c common/libcommon.o
 .text.xyzModem_get_hdr
                0x0000000080e11400      0x234 common/libcommon.o
 .text.xyzModem_stream_open
                0x0000000080e11634      0x23c common/libcommon.o
                0x0000000080e11634                xyzModem_stream_open
 .text.xyzModem_stream_read
                0x0000000080e11870      0x258 common/libcommon.o
                0x0000000080e11870                xyzModem_stream_read
 .text.xyzModem_stream_close
                0x0000000080e11ac8       0x54 common/libcommon.o
                0x0000000080e11ac8                xyzModem_stream_close
 .text.xyzModem_stream_terminate
                0x0000000080e11b1c       0x94 common/libcommon.o
                0x0000000080e11b1c                xyzModem_stream_terminate
 .text.xyzModem_error
                0x0000000080e11bb0       0x20 common/libcommon.o
                0x0000000080e11bb0                xyzModem_error
 .text.get_dev  0x0000000080e11bd0       0x74 disk/libdisk.o
                0x0000000080e11bd0                get_dev
 .text.dev_print
                0x0000000080e11c44      0x218 disk/libdisk.o
                0x0000000080e11c44                dev_print
 .text.init_part
                0x0000000080e11e5c       0x20 disk/libdisk.o
                0x0000000080e11e5c                init_part
 .text.print_part
                0x0000000080e11e7c       0xe4 disk/libdisk.o
                0x0000000080e11e7c                print_part
 .text.get_partition_info
                0x0000000080e11f60       0x28 disk/libdisk.o
                0x0000000080e11f60                get_partition_info
 .text.get_device
                0x0000000080e11f88       0x84 disk/libdisk.o
                0x0000000080e11f88                get_device
 .text.get_device_and_partition
                0x0000000080e1200c      0x440 disk/libdisk.o
                0x0000000080e1200c                get_device_and_partition
 .text.test_block_type
                0x0000000080e1244c       0xfc disk/libdisk.o
 .text.print_partition_extended
                0x0000000080e12548      0x2c0 disk/libdisk.o
 .text.get_partition_info_extended.constprop.2
                0x0000000080e12808      0x298 disk/libdisk.o
 .text.test_part_dos
                0x0000000080e12aa0       0x94 disk/libdisk.o
                0x0000000080e12aa0                test_part_dos
 .text.print_part_dos
                0x0000000080e12b34       0x34 disk/libdisk.o
                0x0000000080e12b34                print_part_dos
 .text.get_partition_info_dos
                0x0000000080e12b68       0xec disk/libdisk.o
                0x0000000080e12b68                get_partition_info_dos
 .text.gpio_set_pin_level
                0x0000000080e12c54       0x70 drivers/gpio/libgpio.o
                0x0000000080e12c54                gpio_set_pin_level
 .text.gpio_set_pin_dir
                0x0000000080e12cc4       0x54 drivers/gpio/libgpio.o
                0x0000000080e12cc4                gpio_set_pin_dir
 .text.gpio_direction_output
                0x0000000080e12d18       0x28 drivers/gpio/libgpio.o
                0x0000000080e12d18                gpio_direction_output
 .text.gpio_set_pin_as_gpio
                0x0000000080e12d40       0x94 drivers/gpio/libgpio.o
                0x0000000080e12d40                gpio_set_pin_as_gpio
 .text.mmc_set_capacity
                0x0000000080e12dd4       0xac drivers/mmc/libmmc.o
 .text.board_mmc_getwp
                0x0000000080e12e80        0x8 drivers/mmc/libmmc.o
                0x0000000080e12e80                board_mmc_getwp
 .text.mmc_getwp
                0x0000000080e12e88       0x34 drivers/mmc/libmmc.o
                0x0000000080e12e88                mmc_getwp
 .text.__board_mmc_getcd
                0x0000000080e12ebc        0x8 drivers/mmc/libmmc.o
                0x0000000080e12ebc                __board_mmc_getcd
                0x0000000080e12ebc                board_mmc_getcd
 .text.mmc_send_cmd
                0x0000000080e12ec4        0x8 drivers/mmc/libmmc.o
                0x0000000080e12ec4                mmc_send_cmd
 .text.mmc_go_idle
                0x0000000080e12ecc       0x28 drivers/mmc/libmmc.o
 .text.mmc_send_op_cond_iter
                0x0000000080e12ef4       0x80 drivers/mmc/libmmc.o
 .text.mmc_send_ext_csd
                0x0000000080e12f74       0x4c drivers/mmc/libmmc.o
 .text.mmc_send_status
                0x0000000080e12fc0       0xc4 drivers/mmc/libmmc.o
                0x0000000080e12fc0                mmc_send_status
 .text.mmc_switch.isra.1
                0x0000000080e13084       0x54 drivers/mmc/libmmc.o
 .text.mmc_set_blocklen
                0x0000000080e130d8       0x30 drivers/mmc/libmmc.o
                0x0000000080e130d8                mmc_set_blocklen
 .text.find_mmc_device
                0x0000000080e13108       0x4c drivers/mmc/libmmc.o
                0x0000000080e13108                find_mmc_device
 .text.mmc_bread
                0x0000000080e13154      0x154 drivers/mmc/libmmc.o
 .text.mmc_complete_op_cond
                0x0000000080e132a8       0x8c drivers/mmc/libmmc.o
                0x0000000080e132a8                mmc_complete_op_cond
 .text.mmc_switch_part
                0x0000000080e13334       0x4c drivers/mmc/libmmc.o
                0x0000000080e13334                mmc_switch_part
 .text.mmc_getcd
                0x0000000080e13380       0x34 drivers/mmc/libmmc.o
                0x0000000080e13380                mmc_getcd
 .text.mmc_set_clock
                0x0000000080e133b4       0x40 drivers/mmc/libmmc.o
                0x0000000080e133b4                mmc_set_clock
 .text.mmc_startup
                0x0000000080e133f4      0xb8c drivers/mmc/libmmc.o
 .text.mmc_register
                0x0000000080e13f80       0x88 drivers/mmc/libmmc.o
                0x0000000080e13f80                mmc_register
 .text.mmc_start_init
                0x0000000080e14008      0x248 drivers/mmc/libmmc.o
                0x0000000080e14008                mmc_start_init
 .text.mmc_init
                0x0000000080e14250       0x90 drivers/mmc/libmmc.o
                0x0000000080e14250                mmc_init
 .text.mmc_get_dev
                0x0000000080e142e0       0x2c drivers/mmc/libmmc.o
                0x0000000080e142e0                mmc_get_dev
 .text.print_mmc_devices
                0x0000000080e1430c       0x68 drivers/mmc/libmmc.o
                0x0000000080e1430c                print_mmc_devices
 .text.get_mmc_num
                0x0000000080e14374       0x10 drivers/mmc/libmmc.o
                0x0000000080e14374                get_mmc_num
 .text.mmc_initialize
                0x0000000080e14384      0x120 drivers/mmc/libmmc.o
                0x0000000080e14384                mmc_initialize
 .text.ak_mmc_getcd
                0x0000000080e144a4        0x8 drivers/mmc/libmmc.o
 .text.ak_mmc_getwp
                0x0000000080e144ac       0x2c drivers/mmc/libmmc.o
 .text.ak_mmc_setup_gpio_in
                0x0000000080e144d8       0x4c drivers/mmc/libmmc.o
 .text.send_cmd.isra.3
                0x0000000080e14524       0xa0 drivers/mmc/libmmc.o
 .text.ak_set_clock.isra.0.constprop.11
                0x0000000080e145c4       0x6c drivers/mmc/libmmc.o
 .text.ak_mmc_init_setup
                0x0000000080e14630      0x1f0 drivers/mmc/libmmc.o
 .text.ak_mmc_send_cmd
                0x0000000080e14820      0x2d8 drivers/mmc/libmmc.o
 .text.ak_mmc_set_ios
                0x0000000080e14af8       0xa4 drivers/mmc/libmmc.o
 .text.ak_sdhsmmc_init
                0x0000000080e14b9c      0x1b0 drivers/mmc/libmmc.o
                0x0000000080e14b9c                ak_sdhsmmc_init
 .text.sd_init_info
                0x0000000080e14d4c      0x194 drivers/mmc/libmmc.o
                0x0000000080e14d4c                sd_init_info
 .text.mmc_berase
                0x0000000080e14ee0      0x198 drivers/mmc/libmmc.o
                0x0000000080e14ee0                mmc_berase
 .text.mmc_bwrite
                0x0000000080e15078      0x160 drivers/mmc/libmmc.o
                0x0000000080e15078                mmc_bwrite
 .text.add_mtd_device
                0x0000000080e151d8       0x88 drivers/mtd/libmtd.o
                0x0000000080e151d8                add_mtd_device
 .text.get_mtd_device_nm
                0x0000000080e15260       0x6c drivers/mtd/libmtd.o
                0x0000000080e15260                get_mtd_device_nm
 .text.spi_flash_read_write
                0x0000000080e152cc       0x74 drivers/mtd/spi/libspi_flash.o
 .text.spi_flash_cmd_read
                0x0000000080e15340       0x20 drivers/mtd/spi/libspi_flash.o
                0x0000000080e15340                spi_flash_cmd_read
 .text.spi_flash_cmd
                0x0000000080e15360       0x2c drivers/mtd/spi/libspi_flash.o
                0x0000000080e15360                spi_flash_cmd
 .text.spi_flash_cmd_write
                0x0000000080e1538c       0x20 drivers/mtd/spi/libspi_flash.o
                0x0000000080e1538c                spi_flash_cmd_write
 .text.spi_flash_probe
                0x0000000080e153ac      0x5ac drivers/mtd/spi/libspi_flash.o
                0x0000000080e153ac                spi_flash_probe
 .text.spi_flash_free
                0x0000000080e15958       0x1c drivers/mtd/spi/libspi_flash.o
                0x0000000080e15958                spi_flash_free
 .text.spi_flash_addr
                0x0000000080e15974       0x30 drivers/mtd/spi/libspi_flash.o
 .text.spi_flash_cmd_wait_ready
                0x0000000080e159a4       0xd8 drivers/mtd/spi/libspi_flash.o
                0x0000000080e159a4                spi_flash_cmd_wait_ready
 .text.show_spi_flash_reg
                0x0000000080e15a7c       0x38 drivers/mtd/spi/libspi_flash.o
                0x0000000080e15a7c                show_spi_flash_reg
 .text.spi_flash_quad_mode_enable
                0x0000000080e15ab4       0x68 drivers/mtd/spi/libspi_flash.o
                0x0000000080e15ab4                spi_flash_quad_mode_enable
 .text.spi_flash_write_common
                0x0000000080e15b1c       0xa0 drivers/mtd/spi/libspi_flash.o
                0x0000000080e15b1c                spi_flash_write_common
 .text.spi_flash_gd25q128c_cmd_write_status
                0x0000000080e15bbc       0x78 drivers/mtd/spi/libspi_flash.o
                0x0000000080e15bbc                spi_flash_gd25q128c_cmd_write_status
 .text.spi_flash_cmd_write_status
                0x0000000080e15c34       0xd8 drivers/mtd/spi/libspi_flash.o
                0x0000000080e15c34                spi_flash_cmd_write_status
 .text.spi_flash_xmc_cmd_write_status
                0x0000000080e15d0c       0x2c drivers/mtd/spi/libspi_flash.o
                0x0000000080e15d0c                spi_flash_xmc_cmd_write_status
 .text.spi_flash_cmd_bankaddr_write
                0x0000000080e15d38       0x54 drivers/mtd/spi/libspi_flash.o
 .text.spi_flash_write_common_volatile
                0x0000000080e15d8c       0xa0 drivers/mtd/spi/libspi_flash.o
                0x0000000080e15d8c                spi_flash_write_common_volatile
 .text.spi_flash_winbond_cmd_write_status_volatile
                0x0000000080e15e2c       0xb8 drivers/mtd/spi/libspi_flash.o
                0x0000000080e15e2c                spi_flash_winbond_cmd_write_status_volatile
 .text.spi_flash_cmd_erase_ops
                0x0000000080e15ee4      0x290 drivers/mtd/spi/libspi_flash.o
                0x0000000080e15ee4                spi_flash_cmd_erase_ops
 .text.spi_flash_read_common
                0x0000000080e16174       0x5c drivers/mtd/spi/libspi_flash.o
                0x0000000080e16174                spi_flash_read_common
 .text.spi_flash_cmd_read_status
                0x0000000080e161d0       0xd8 drivers/mtd/spi/libspi_flash.o
                0x0000000080e161d0                spi_flash_cmd_read_status
 .text.spi_flash_xmc_cmd_read_status
                0x0000000080e162a8       0xd8 drivers/mtd/spi/libspi_flash.o
                0x0000000080e162a8                spi_flash_xmc_cmd_read_status
 .text.spi_flash_write_extra
                0x0000000080e16380       0xec drivers/mtd/spi/libspi_flash.o
                0x0000000080e16380                spi_flash_write_extra
 .text.spi_flash_cmd_write_ops_extra
                0x0000000080e1646c       0xe8 drivers/mtd/spi/libspi_flash.o
                0x0000000080e1646c                spi_flash_cmd_write_ops_extra
 .text.spi_flash_read_extra
                0x0000000080e16554       0xa0 drivers/mtd/spi/libspi_flash.o
                0x0000000080e16554                spi_flash_read_extra
 .text.spi_flash_cmd_read_ops_extra
                0x0000000080e165f4      0x12c drivers/mtd/spi/libspi_flash.o
                0x0000000080e165f4                spi_flash_cmd_read_ops_extra
 .text.gmac_read_phy_reg
                0x0000000080e16720       0x50 drivers/net/libnet.o
 .text.gmac_write_phy_reg
                0x0000000080e16770       0x44 drivers/net/libnet.o
 .text.ak_gmac_phy_software_reset
                0x0000000080e167b4       0xb0 drivers/net/libnet.o
 .text.smc_rcv  0x0000000080e16864       0x80 drivers/net/libnet.o
 .text.gmac_rmii_sharepin_cfg
                0x0000000080e168e4       0xb8 drivers/net/libnet.o
 .text.smc_send
                0x0000000080e1699c       0xe8 drivers/net/libnet.o
 .text.smc_halt
                0x0000000080e16a84       0xa8 drivers/net/libnet.o
 .text.smc_write_hwaddr
                0x0000000080e16b2c       0x4c drivers/net/libnet.o
 .text.get_eth_reset_gpio
                0x0000000080e16b78       0xb8 drivers/net/libnet.o
                0x0000000080e16b78                get_eth_reset_gpio
 .text.get_eth1_reset_gpio
                0x0000000080e16c30       0xb8 drivers/net/libnet.o
                0x0000000080e16c30                get_eth1_reset_gpio
 .text.smc_init
                0x0000000080e16ce8      0xaf8 drivers/net/libnet.o
 .text.ak39_ethernet_initialize
                0x0000000080e177e0      0x22c drivers/net/libnet.o
                0x0000000080e177e0                ak39_ethernet_initialize
 .text.serial_init_dev
                0x0000000080e17a0c       0xc4 drivers/serial/libserial.o
 .text.akserial0_init
                0x0000000080e17ad0        0x8 drivers/serial/libserial.o
                0x0000000080e17ad0                akserial0_init
 .text.akserial1_init
                0x0000000080e17ad8        0x8 drivers/serial/libserial.o
                0x0000000080e17ad8                akserial1_init
 .text.akserial1_setbrg
                0x0000000080e17ae0        0x4 drivers/serial/libserial.o
                0x0000000080e17ae0                akserial1_setbrg
 .text.akserial0_setbrg
                0x0000000080e17ae4        0x4 drivers/serial/libserial.o
                0x0000000080e17ae4                akserial0_setbrg
 .text._serial_getc
                0x0000000080e17ae8       0xbc drivers/serial/libserial.o
                0x0000000080e17ae8                _serial_getc
 .text.akserial0_getc
                0x0000000080e17ba4        0x8 drivers/serial/libserial.o
                0x0000000080e17ba4                akserial0_getc
 .text.akserial1_getc
                0x0000000080e17bac        0x8 drivers/serial/libserial.o
                0x0000000080e17bac                akserial1_getc
 .text._serial_putc
                0x0000000080e17bb4       0x70 drivers/serial/libserial.o
                0x0000000080e17bb4                _serial_putc
 .text.akserial0_putc
                0x0000000080e17c24        0x8 drivers/serial/libserial.o
                0x0000000080e17c24                akserial0_putc
 .text.akserial1_putc
                0x0000000080e17c2c        0x8 drivers/serial/libserial.o
                0x0000000080e17c2c                akserial1_putc
 .text._serial_tstc
                0x0000000080e17c34       0x40 drivers/serial/libserial.o
                0x0000000080e17c34                _serial_tstc
 .text.akserial0_tstc
                0x0000000080e17c74        0x8 drivers/serial/libserial.o
                0x0000000080e17c74                akserial0_tstc
 .text.akserial1_tstc
                0x0000000080e17c7c        0x8 drivers/serial/libserial.o
                0x0000000080e17c7c                akserial1_tstc
 .text._serial_puts
                0x0000000080e17c84       0x40 drivers/serial/libserial.o
                0x0000000080e17c84                _serial_puts
 .text.akserial0_puts
                0x0000000080e17cc4        0x8 drivers/serial/libserial.o
                0x0000000080e17cc4                akserial0_puts
 .text.akserial1_puts
                0x0000000080e17ccc        0x8 drivers/serial/libserial.o
                0x0000000080e17ccc                akserial1_puts
 .text.default_serial_console
                0x0000000080e17cd4        0xc drivers/serial/libserial.o
                0x0000000080e17cd4                default_serial_console
 .text.ak39_serial_initialize
                0x0000000080e17ce0       0x20 drivers/serial/libserial.o
                0x0000000080e17ce0                ak39_serial_initialize
 .text.get_current
                0x0000000080e17d00       0x40 drivers/serial/libserial.o
 .text.serial_null
                0x0000000080e17d40        0x4 drivers/serial/libserial.o
                0x0000000080e17d40                jz_serial_initialize
                0x0000000080e17d40                bfin_serial_initialize
                0x0000000080e17d40                p3mx_serial_initialize
                0x0000000080e17d40                leon2_serial_initialize
                0x0000000080e17d40                leon3_serial_initialize
                0x0000000080e17d40                amirix_serial_initialize
                0x0000000080e17d40                marvell_serial_initialize
                0x0000000080e17d40                cpci750_serial_initialize
                0x0000000080e17d40                ns16550_serial_initialize
                0x0000000080e17d40                asc_serial_initialize
                0x0000000080e17d40                altera_serial_initialize
                0x0000000080e17d40                oc_serial_initialize
                0x0000000080e17d40                sh_serial_initialize
                0x0000000080e17d40                mxs_auart_initialize
                0x0000000080e17d40                arm_dcc_initialize
                0x0000000080e17d40                bmw_serial_initialize
                0x0000000080e17d40                mcf_serial_initialize
                0x0000000080e17d40                lh7a40x_serial_initialize
                0x0000000080e17d40                evb64260_serial_initialize
                0x0000000080e17d40                lpc32xx_serial_initialize
                0x0000000080e17d40                max3100_serial_initialize
                0x0000000080e17d40                mpc85xx_serial_initialize
                0x0000000080e17d40                imx_serial_initialize
                0x0000000080e17d40                ixp_serial_initialize
                0x0000000080e17d40                bfin_jtag_initialize
                0x0000000080e17d40                cogent_serial_initialize
                0x0000000080e17d40                clps7111_serial_initialize
                0x0000000080e17d40                ml2_serial_initialize
                0x0000000080e17d40                sandbox_serial_initialize
                0x0000000080e17d40                s3c24xx_serial_initialize
                0x0000000080e17d40                sconsole_serial_initialize
                0x0000000080e17d40                uartlite_serial_initialize
                0x0000000080e17d40                au1x00_serial_initialize
                0x0000000080e17d40                pxa_serial_initialize
                0x0000000080e17d40                atmel_serial_initialize
                0x0000000080e17d40                pl01x_serial_initialize
                0x0000000080e17d40                altera_jtag_serial_initialize
                0x0000000080e17d40                zynq_serial_initalize
                0x0000000080e17d40                mpc512x_serial_initialize
                0x0000000080e17d40                s5p_serial_initialize
                0x0000000080e17d40                ks8695_serial_initialize
                0x0000000080e17d40                sa1100_serial_initialize
                0x0000000080e17d40                mpc8260_scc_serial_initialize
                0x0000000080e17d40                mxc_serial_initialize
                0x0000000080e17d40                iop480_serial_initialize
                0x0000000080e17d40                mpc8xx_serial_initialize
                0x0000000080e17d40                mpc8260_smc_serial_initialize
                0x0000000080e17d40                mpc5xx_serial_initialize
 .text.serial_register
                0x0000000080e17d44       0x18 drivers/serial/libserial.o
                0x0000000080e17d44                serial_register
 .text.serial_stdio_init
                0x0000000080e17d5c       0x8c drivers/serial/libserial.o
                0x0000000080e17d5c                serial_stdio_init
 .text.serial_assign
                0x0000000080e17de8       0x4c drivers/serial/libserial.o
                0x0000000080e17de8                serial_assign
 .text.serial_initialize
                0x0000000080e17e34       0xd4 drivers/serial/libserial.o
                0x0000000080e17e34                serial_initialize
 .text.serial_init
                0x0000000080e17f08       0x14 drivers/serial/libserial.o
                0x0000000080e17f08                serial_init
 .text.serial_setbrg
                0x0000000080e17f1c       0x14 drivers/serial/libserial.o
                0x0000000080e17f1c                serial_setbrg
 .text.on_baudrate
                0x0000000080e17f30       0xf0 drivers/serial/libserial.o
 .text.serial_getc
                0x0000000080e18020       0x14 drivers/serial/libserial.o
                0x0000000080e18020                serial_getc
 .text.serial_tstc
                0x0000000080e18034       0x14 drivers/serial/libserial.o
                0x0000000080e18034                serial_tstc
 .text.serial_putc
                0x0000000080e18048       0x1c drivers/serial/libserial.o
                0x0000000080e18048                serial_putc
 .text.serial_puts
                0x0000000080e18064       0x1c drivers/serial/libserial.o
                0x0000000080e18064                serial_puts
 .text.spi_do_alloc_slave
                0x0000000080e18080       0x44 drivers/spi/libspi.o
                0x0000000080e18080                spi_do_alloc_slave
 .text.spi_rxdword
                0x0000000080e180c4       0x50 drivers/spi/libspi.o
 .text.ak_spi_start_txrx.isra.4
                0x0000000080e18114       0x5c drivers/spi/libspi.o
 .text.spi_sharepin_cfg
                0x0000000080e18170       0x34 drivers/spi/libspi.o
                0x0000000080e18170                spi_sharepin_cfg
 .text.spi_setup_slave
                0x0000000080e181a4      0x1a8 drivers/spi/libspi.o
                0x0000000080e181a4                spi_setup_slave
 .text.spi_free_slave
                0x0000000080e1834c        0x4 drivers/spi/libspi.o
                0x0000000080e1834c                spi_free_slave
 .text.spi_cs_activate
                0x0000000080e18350       0x18 drivers/spi/libspi.o
                0x0000000080e18350                spi_cs_activate
 .text.spi_claim_bus
                0x0000000080e18368        0x8 drivers/spi/libspi.o
                0x0000000080e18368                spi_claim_bus
 .text.spi_release_bus
                0x0000000080e18370        0x4 drivers/spi/libspi.o
                0x0000000080e18370                spi_release_bus
 .text.ak_spi_read_cpu
                0x0000000080e18374      0x15c drivers/spi/libspi.o
                0x0000000080e18374                ak_spi_read_cpu
 .text.ak_spi_write_cpu
                0x0000000080e184d0      0x184 drivers/spi/libspi.o
                0x0000000080e184d0                ak_spi_write_cpu
 .text.ak_spi_write_internal
                0x0000000080e18654       0xf0 drivers/spi/libspi.o
                0x0000000080e18654                ak_spi_write_internal
 .text.ak_spi_read_internal
                0x0000000080e18744      0x150 drivers/spi/libspi.o
                0x0000000080e18744                ak_spi_read_internal
 .text.ak_spi_write
                0x0000000080e18894       0xcc drivers/spi/libspi.o
                0x0000000080e18894                ak_spi_write
 .text.ak_spi_read
                0x0000000080e18960       0xb8 drivers/spi/libspi.o
                0x0000000080e18960                ak_spi_read
 .text.spi_xfer
                0x0000000080e18a18       0xe8 drivers/spi/libspi.o
                0x0000000080e18a18                spi_xfer
 .text.rgb_panel_info_cfg
                0x0000000080e18b00      0x27c drivers/video/libvideo.o
 .text.mipi_panel_cmd_setting
                0x0000000080e18d7c      0x238 drivers/video/libvideo.o
 .text.mpu_recover_buswidth.isra.4
                0x0000000080e18fb4       0x20 drivers/video/libvideo.o
 .text.mpu_set_16bit_buswidth.isra.7
                0x0000000080e18fd4       0x30 drivers/video/libvideo.o
 .text.mpu_write_reg
                0x0000000080e19004       0x4c drivers/video/libvideo.o
 .text.mpu_read_reg.isra.8
                0x0000000080e19050       0xbc drivers/video/libvideo.o
 .text.ak_get_asic_pll_clk
                0x0000000080e1910c       0x34 drivers/video/libvideo.o
                0x0000000080e1910c                ak_get_asic_pll_clk
 .text.ak_lcd_parameter_parse_dt1
                0x0000000080e19140      0x484 drivers/video/libvideo.o
                0x0000000080e19140                ak_lcd_parameter_parse_dt1
 .text.ak_lcd_parameter_parse_dt2
                0x0000000080e195c4      0x4b8 drivers/video/libvideo.o
                0x0000000080e195c4                ak_lcd_parameter_parse_dt2
 .text.ak_lcd_parameter_parse_dt3
                0x0000000080e19a7c      0x1bc drivers/video/libvideo.o
                0x0000000080e19a7c                ak_lcd_parameter_parse_dt3
 .text.lcd_ctrl_init
                0x0000000080e19c38      0xc7c drivers/video/libvideo.o
                0x0000000080e19c38                lcd_ctrl_init
 .text.lcd_enable
                0x0000000080e1a8b4      0x230 drivers/video/libvideo.o
                0x0000000080e1a8b4                lcd_enable
 .text.lcd_disable
                0x0000000080e1aae4       0x28 drivers/video/libvideo.o
                0x0000000080e1aae4                lcd_disable
 .text.wdt_enable
                0x0000000080e1ab0c       0x28 drivers/watchdog/libwatchdog.o
                0x0000000080e1ab0c                wdt_enable
 .text.wdt_keepalive
                0x0000000080e1ab34       0x3c drivers/watchdog/libwatchdog.o
                0x0000000080e1ab34                wdt_keepalive
 .text.downcase
                0x0000000080e1ab70       0x30 fs/fat/libfat.o
 .text.disk_read
                0x0000000080e1aba0       0x64 fs/fat/libfat.o
 .text.dirdelim
                0x0000000080e1ac04       0x30 fs/fat/libfat.o
 .text.get_fatent
                0x0000000080e1ac34      0x15c fs/fat/libfat.o
 .text.mkcksum  0x0000000080e1ad90       0x50 fs/fat/libfat.o
 .text.get_cluster
                0x0000000080e1ade0      0x170 fs/fat/libfat.o
 .text.get_name
                0x0000000080e1af50       0xac fs/fat/libfat.o
 .text.read_bootsectandvi
                0x0000000080e1affc      0x124 fs/fat/libfat.o
 .text.slot2str
                0x0000000080e1b120       0xbc fs/fat/libfat.o
 .text.get_vfatname
                0x0000000080e1b1dc      0x1b0 fs/fat/libfat.o
 .text.fat_set_blk_dev
                0x0000000080e1b38c       0xcc fs/fat/libfat.o
                0x0000000080e1b38c                fat_set_blk_dev
 .text.do_fat_read_at
                0x0000000080e1b458      0xad0 fs/fat/libfat.o
                0x0000000080e1b458                do_fat_read_at
 .text.do_fat_read
                0x0000000080e1bf28       0x28 fs/fat/libfat.o
                0x0000000080e1bf28                do_fat_read
 .text.file_fat_detectfs
                0x0000000080e1bf50      0x148 fs/fat/libfat.o
                0x0000000080e1bf50                file_fat_detectfs
 .text.file_fat_ls
                0x0000000080e1c098       0x10 fs/fat/libfat.o
                0x0000000080e1c098                file_fat_ls
 .text.file_fat_read_at
                0x0000000080e1c0a8       0x48 fs/fat/libfat.o
                0x0000000080e1c0a8                file_fat_read_at
 .text.fat_read_file
                0x0000000080e1c0f0       0x3c fs/fat/libfat.o
                0x0000000080e1c0f0                fat_read_file
 .text.fat_close
                0x0000000080e1c12c        0x4 fs/fat/libfat.o
                0x0000000080e1c12c                fat_close
 .text.fs_probe_unsupported
                0x0000000080e1c130       0x18 fs/libfs.o
 .text.fs_ls_unsupported
                0x0000000080e1c148        0x8 fs/libfs.o
 .text.fs_read_unsupported
                0x0000000080e1c150        0x8 fs/libfs.o
 .text.fs_write_unsupported
                0x0000000080e1c158        0x8 fs/libfs.o
 .text.fs_close_unsupported
                0x0000000080e1c160        0x4 fs/libfs.o
 .text.fs_get_info
                0x0000000080e1c164       0x20 fs/libfs.o
 .text.fs_close
                0x0000000080e1c184       0x28 fs/libfs.o
 .text.fs_set_blk_dev
                0x0000000080e1c1ac       0xa0 fs/libfs.o
                0x0000000080e1c1ac                fs_set_blk_dev
 .text.fs_ls    0x0000000080e1c24c       0x3c fs/libfs.o
                0x0000000080e1c24c                fs_ls
 .text.fs_read  0x0000000080e1c288       0xa4 fs/libfs.o
                0x0000000080e1c288                fs_read
 .text.do_load  0x0000000080e1c32c      0x1e0 fs/libfs.o
                0x0000000080e1c32c                do_load
 .text.do_ls    0x0000000080e1c50c       0x68 fs/libfs.o
                0x0000000080e1c50c                do_ls
 .text.fdt_check_header
                0x0000000080e1c574       0xc4 lib/libfdt/libfdt.o
                0x0000000080e1c574                fdt_check_header
 .text.fdt_offset_ptr
                0x0000000080e1c638       0x8c lib/libfdt/libfdt.o
                0x0000000080e1c638                fdt_offset_ptr
 .text.fdt_next_tag
                0x0000000080e1c6c4      0x124 lib/libfdt/libfdt.o
                0x0000000080e1c6c4                fdt_next_tag
 .text._fdt_check_node_offset
                0x0000000080e1c7e8       0x3c lib/libfdt/libfdt.o
                0x0000000080e1c7e8                _fdt_check_node_offset
 .text._fdt_check_prop_offset
                0x0000000080e1c824       0x3c lib/libfdt/libfdt.o
                0x0000000080e1c824                _fdt_check_prop_offset
 .text.fdt_next_node
                0x0000000080e1c860       0xb8 lib/libfdt/libfdt.o
                0x0000000080e1c860                fdt_next_node
 .text._fdt_find_string
                0x0000000080e1c918       0x5c lib/libfdt/libfdt.o
                0x0000000080e1c918                _fdt_find_string
 .text.fdt_move
                0x0000000080e1c974       0x5c lib/libfdt/libfdt.o
                0x0000000080e1c974                fdt_move
 .text._nextprop
                0x0000000080e1c9d0       0x5c lib/libfdt/libfdt.o
 .text.fdt_string
                0x0000000080e1ca2c       0x28 lib/libfdt/libfdt.o
                0x0000000080e1ca2c                fdt_string
 .text.fdt_get_mem_rsv
                0x0000000080e1ca54       0xc8 lib/libfdt/libfdt.o
                0x0000000080e1ca54                fdt_get_mem_rsv
 .text.fdt_num_mem_rsv
                0x0000000080e1cb1c       0x84 lib/libfdt/libfdt.o
                0x0000000080e1cb1c                fdt_num_mem_rsv
 .text.fdt_subnode_offset_namelen
                0x0000000080e1cba0       0xd4 lib/libfdt/libfdt.o
                0x0000000080e1cba0                fdt_subnode_offset_namelen
 .text.fdt_get_name
                0x0000000080e1cc74       0x88 lib/libfdt/libfdt.o
                0x0000000080e1cc74                fdt_get_name
 .text.fdt_first_property_offset
                0x0000000080e1ccfc       0x20 lib/libfdt/libfdt.o
                0x0000000080e1ccfc                fdt_first_property_offset
 .text.fdt_next_property_offset
                0x0000000080e1cd1c       0x20 lib/libfdt/libfdt.o
                0x0000000080e1cd1c                fdt_next_property_offset
 .text.fdt_get_property_by_offset
                0x0000000080e1cd3c       0x7c lib/libfdt/libfdt.o
                0x0000000080e1cd3c                fdt_get_property_by_offset
 .text.fdt_get_property_namelen
                0x0000000080e1cdb8       0xb4 lib/libfdt/libfdt.o
                0x0000000080e1cdb8                fdt_get_property_namelen
 .text.fdt_get_property
                0x0000000080e1ce6c       0x3c lib/libfdt/libfdt.o
                0x0000000080e1ce6c                fdt_get_property
 .text.fdt_getprop_namelen
                0x0000000080e1cea8       0x20 lib/libfdt/libfdt.o
                0x0000000080e1cea8                fdt_getprop_namelen
 .text.fdt_getprop
                0x0000000080e1cec8       0x3c lib/libfdt/libfdt.o
                0x0000000080e1cec8                fdt_getprop
 .text.fdt_get_alias_namelen
                0x0000000080e1cf04       0x48 lib/libfdt/libfdt.o
                0x0000000080e1cf04                fdt_get_alias_namelen
 .text.fdt_path_offset
                0x0000000080e1cf4c       0xec lib/libfdt/libfdt.o
                0x0000000080e1cf4c                fdt_path_offset
 .text.fdt_supernode_atdepth_offset
                0x0000000080e1d038       0xb8 lib/libfdt/libfdt.o
                0x0000000080e1d038                fdt_supernode_atdepth_offset
 .text.fdt_node_depth
                0x0000000080e1d0f0       0x28 lib/libfdt/libfdt.o
                0x0000000080e1d0f0                fdt_node_depth
 .text.fdt_stringlist_contains
                0x0000000080e1d118       0x7c lib/libfdt/libfdt.o
                0x0000000080e1d118                fdt_stringlist_contains
 .text.fdt_node_check_compatible
                0x0000000080e1d194       0x40 lib/libfdt/libfdt.o
                0x0000000080e1d194                fdt_node_check_compatible
 .text.fdt_node_offset_by_compatible
                0x0000000080e1d1d4       0x74 lib/libfdt/libfdt.o
                0x0000000080e1d1d4                fdt_node_offset_by_compatible
 .text._fdt_blocks_misordered
                0x0000000080e1d248       0xcc lib/libfdt/libfdt.o
 .text._fdt_splice
                0x0000000080e1d314       0xb4 lib/libfdt/libfdt.o
 .text._fdt_splice_mem_rsv
                0x0000000080e1d3c8       0xa8 lib/libfdt/libfdt.o
 .text._fdt_splice_struct
                0x0000000080e1d470       0x9c lib/libfdt/libfdt.o
 .text._fdt_packblocks
                0x0000000080e1d50c      0x148 lib/libfdt/libfdt.o
 .text._fdt_add_property
                0x0000000080e1d654      0x1d4 lib/libfdt/libfdt.o
 .text._fdt_rw_check_header
                0x0000000080e1d828       0x88 lib/libfdt/libfdt.o
 .text.fdt_add_mem_rsv
                0x0000000080e1d8b0       0xec lib/libfdt/libfdt.o
                0x0000000080e1d8b0                fdt_add_mem_rsv
 .text.fdt_del_mem_rsv
                0x0000000080e1d99c       0x70 lib/libfdt/libfdt.o
                0x0000000080e1d99c                fdt_del_mem_rsv
 .text.fdt_setprop
                0x0000000080e1da0c       0xe4 lib/libfdt/libfdt.o
                0x0000000080e1da0c                fdt_setprop
 .text.fdt_delprop
                0x0000000080e1daf0       0x64 lib/libfdt/libfdt.o
                0x0000000080e1daf0                fdt_delprop
 .text.fdt_add_subnode_namelen
                0x0000000080e1db54      0x104 lib/libfdt/libfdt.o
                0x0000000080e1db54                fdt_add_subnode_namelen
 .text.fdt_add_subnode
                0x0000000080e1dc58       0x30 lib/libfdt/libfdt.o
                0x0000000080e1dc58                fdt_add_subnode
 .text.fdt_del_node
                0x0000000080e1dc88       0x74 lib/libfdt/libfdt.o
                0x0000000080e1dc88                fdt_del_node
 .text.fdt_open_into
                0x0000000080e1dcfc      0x24c lib/libfdt/libfdt.o
                0x0000000080e1dcfc                fdt_open_into
 .text.fdt_strerror
                0x0000000080e1df48       0x58 lib/libfdt/libfdt.o
                0x0000000080e1df48                fdt_strerror
 .text._fdt_node_end_offset
                0x0000000080e1dfa0       0x44 lib/libfdt/libfdt.o
                0x0000000080e1dfa0                _fdt_node_end_offset
 .text.cyg_crc16
                0x0000000080e1dfe4       0x48 lib/libgeneric.o
                0x0000000080e1dfe4                cyg_crc16
 .text.crc32_no_comp
                0x0000000080e1e02c       0xd8 lib/libgeneric.o
                0x0000000080e1e02c                crc32_no_comp
 .text.crc32    0x0000000080e1e104       0x14 lib/libgeneric.o
                0x0000000080e1e104                crc32
 .text.crc32_wd
                0x0000000080e1e118        0x4 lib/libgeneric.o
                0x0000000080e1e118                crc32_wd
 .text.print_size
                0x0000000080e1e11c      0x130 lib/libgeneric.o
                0x0000000080e1e11c                print_size
 .text.print_buffer
                0x0000000080e1e24c      0x1b0 lib/libgeneric.o
                0x0000000080e1e24c                print_buffer
 .text.__div64_32
                0x0000000080e1e3fc       0xd0 lib/libgeneric.o
                0x0000000080e1e3fc                __div64_32
 .text.get_prop_check_min_len
                0x0000000080e1e4cc       0x3c lib/libgeneric.o
 .text.fdtdec_get_int
                0x0000000080e1e508       0x50 lib/libgeneric.o
                0x0000000080e1e508                fdtdec_get_int
 .text.fdtdec_get_valoffset_int
                0x0000000080e1e558       0x58 lib/libgeneric.o
                0x0000000080e1e558                fdtdec_get_valoffset_int
 .text.fdtdec_get_is_enabled
                0x0000000080e1e5b0       0x3c lib/libgeneric.o
                0x0000000080e1e5b0                fdtdec_get_is_enabled
 .text.fdtdec_next_compatible
                0x0000000080e1e5ec       0x10 lib/libgeneric.o
                0x0000000080e1e5ec                fdtdec_next_compatible
 .text.fdtdec_next_compatible_subnode_sta
                0x0000000080e1e5fc       0x88 lib/libgeneric.o
                0x0000000080e1e5fc                fdtdec_next_compatible_subnode_sta
 .text.fdtdec_prepare_fdt
                0x0000000080e1e684       0x44 lib/libgeneric.o
                0x0000000080e1e684                fdtdec_prepare_fdt
 .text.fdtdec_check_fdt
                0x0000000080e1e6c8       0x10 lib/libgeneric.o
                0x0000000080e1e6c8                fdtdec_check_fdt
 .text.fdtdec_get_int_array
                0x0000000080e1e6d8       0x74 lib/libgeneric.o
                0x0000000080e1e6d8                fdtdec_get_int_array
 .text.fdtdec_get_bool
                0x0000000080e1e74c       0x1c lib/libgeneric.o
                0x0000000080e1e74c                fdtdec_get_bool
 .text.fdtdec_get_config_int
                0x0000000080e1e768       0x40 lib/libgeneric.o
                0x0000000080e1e768                fdtdec_get_config_int
 .text.fdtdec_get_config_string
                0x0000000080e1e7a8       0x3c lib/libgeneric.o
                0x0000000080e1e7a8                fdtdec_get_config_string
 .text.hang     0x0000000080e1e7e4       0x1c lib/libgeneric.o
                0x0000000080e1e7e4                hang
 .text.cmpkey   0x0000000080e1e800       0x14 lib/libgeneric.o
 .text._hdelete.isra.1
                0x0000000080e1e814       0x50 lib/libgeneric.o
 .text.drop_var_from_set.part.2
                0x0000000080e1e864       0x50 lib/libgeneric.o
 .text.match_string.isra.3
                0x0000000080e1e8b4       0x60 lib/libgeneric.o
 .text.hcreate_r
                0x0000000080e1e914       0xb0 lib/libgeneric.o
                0x0000000080e1e914                hcreate_r
 .text.hdestroy_r
                0x0000000080e1e9c4       0x78 lib/libgeneric.o
                0x0000000080e1e9c4                hdestroy_r
 .text.hmatch_r
                0x0000000080e1ea3c       0xa0 lib/libgeneric.o
                0x0000000080e1ea3c                hmatch_r
 .text.hsearch_r
                0x0000000080e1eadc      0x4dc lib/libgeneric.o
                0x0000000080e1eadc                hsearch_r
 .text.hdelete_r
                0x0000000080e1efb8       0xd8 lib/libgeneric.o
                0x0000000080e1efb8                hdelete_r
 .text.hexport_r
                0x0000000080e1f090      0x310 lib/libgeneric.o
                0x0000000080e1f090                hexport_r
 .text.himport_r
                0x0000000080e1f3a0      0x34c lib/libgeneric.o
                0x0000000080e1f3a0                himport_r
 .text.hwalk_r  0x0000000080e1f6ec       0x58 lib/libgeneric.o
                0x0000000080e1f6ec                hwalk_r
 .text.skip_spaces
                0x0000000080e1f744       0x28 lib/libgeneric.o
                0x0000000080e1f744                skip_spaces
 .text.strim    0x0000000080e1f76c       0x60 lib/libgeneric.o
                0x0000000080e1f76c                strim
 .text.lmb_add_region
                0x0000000080e1f7cc      0x1a4 lib/libgeneric.o
 .text.lmb_init
                0x0000000080e1f970       0x28 lib/libgeneric.o
                0x0000000080e1f970                lmb_init
 .text.lmb_add  0x0000000080e1f998        0x4 lib/libgeneric.o
                0x0000000080e1f998                lmb_add
 .text.lmb_free
                0x0000000080e1f99c      0x104 lib/libgeneric.o
                0x0000000080e1f99c                lmb_free
 .text.lmb_reserve
                0x0000000080e1faa0        0x8 lib/libgeneric.o
                0x0000000080e1faa0                lmb_reserve
 .text.lmb_overlaps_region
                0x0000000080e1faa8       0x58 lib/libgeneric.o
                0x0000000080e1faa8                lmb_overlaps_region
 .text.__lmb_alloc_base
                0x0000000080e1fb00      0x108 lib/libgeneric.o
                0x0000000080e1fb00                __lmb_alloc_base
 .text.lmb_alloc_base
                0x0000000080e1fc08       0x34 lib/libgeneric.o
                0x0000000080e1fc08                lmb_alloc_base
 .text.lmb_alloc
                0x0000000080e1fc3c        0x8 lib/libgeneric.o
                0x0000000080e1fc3c                lmb_alloc
 .text.__board_lmb_reserve
                0x0000000080e1fc44        0x4 lib/libgeneric.o
                0x0000000080e1fc44                board_lmb_reserve
                0x0000000080e1fc44                __board_lmb_reserve
 .text.string_to_ip
                0x0000000080e1fc48       0x74 lib/libgeneric.o
                0x0000000080e1fc48                string_to_ip
 .text.qsort    0x0000000080e1fcbc       0xd8 lib/libgeneric.o
                0x0000000080e1fcbc                qsort
 .text.strcmp_compar
                0x0000000080e1fd94        0xc lib/libgeneric.o
                0x0000000080e1fd94                strcmp_compar
 .text.strcpy   0x0000000080e1fda0       0x18 lib/libgeneric.o
                0x0000000080e1fda0                strcpy
 .text.strncpy  0x0000000080e1fdb8       0x24 lib/libgeneric.o
                0x0000000080e1fdb8                strncpy
 .text.strcmp   0x0000000080e1fddc       0x2c lib/libgeneric.o
                0x0000000080e1fddc                strcmp
 .text.strncmp  0x0000000080e1fe08       0x40 lib/libgeneric.o
                0x0000000080e1fe08                strncmp
 .text.strchr   0x0000000080e1fe48       0x2c lib/libgeneric.o
                0x0000000080e1fe48                strchr
 .text.strlen   0x0000000080e1fe74       0x20 lib/libgeneric.o
                0x0000000080e1fe74                strlen
 .text.strnlen  0x0000000080e1fe94       0x2c lib/libgeneric.o
                0x0000000080e1fe94                strnlen
 .text.strdup   0x0000000080e1fec0       0x40 lib/libgeneric.o
                0x0000000080e1fec0                strdup
 .text.strspn   0x0000000080e1ff00       0x3c lib/libgeneric.o
                0x0000000080e1ff00                strspn
 .text.strpbrk  0x0000000080e1ff3c       0x3c lib/libgeneric.o
                0x0000000080e1ff3c                strpbrk
 .text.strtok   0x0000000080e1ff78       0x88 lib/libgeneric.o
                0x0000000080e1ff78                strtok
 .text.memset   0x0000000080e20000       0x5c lib/libgeneric.o
                0x0000000080e20000                memset
 .text.memcpy   0x0000000080e2005c       0x6c lib/libgeneric.o
                0x0000000080e2005c                memcpy
 .text.memmove  0x0000000080e200c8       0x48 lib/libgeneric.o
                0x0000000080e200c8                memmove
 .text.memcmp   0x0000000080e20110       0x30 lib/libgeneric.o
                0x0000000080e20110                memcmp
 .text.strstr   0x0000000080e20140       0x6c lib/libgeneric.o
                0x0000000080e20140                strstr
 .text.memchr   0x0000000080e201ac       0x30 lib/libgeneric.o
                0x0000000080e201ac                memchr
 .text.udelay   0x0000000080e201dc       0x30 lib/libgeneric.o
                0x0000000080e201dc                udelay
 .text.mdelay   0x0000000080e2020c       0x24 lib/libgeneric.o
                0x0000000080e2020c                mdelay
 .text.put_dec_trunc
                0x0000000080e20230       0xec lib/libgeneric.o
 .text.put_dec  0x0000000080e2031c      0x14c lib/libgeneric.o
 .text.string.isra.0
                0x0000000080e20468       0x94 lib/libgeneric.o
 .text.number.isra.4
                0x0000000080e204fc      0x24c lib/libgeneric.o
 .text.vsnprintf_internal.isra.6
                0x0000000080e20748      0x614 lib/libgeneric.o
 .text.simple_strtoul
                0x0000000080e20d5c       0xb8 lib/libgeneric.o
                0x0000000080e20d5c                simple_strtoul
 .text.strict_strtoul
                0x0000000080e20e14       0x78 lib/libgeneric.o
                0x0000000080e20e14                strict_strtoul
 .text.simple_strtol
                0x0000000080e20e8c       0x28 lib/libgeneric.o
                0x0000000080e20e8c                simple_strtol
 .text.simple_strtoull
                0x0000000080e20eb4       0xdc lib/libgeneric.o
                0x0000000080e20eb4                simple_strtoull
 .text.vsprintf
                0x0000000080e20f90        0x4 lib/libgeneric.o
                0x0000000080e20f90                vsprintf
 .text.sprintf  0x0000000080e20f94       0x28 lib/libgeneric.o
                0x0000000080e20f94                sprintf
 .text.panic    0x0000000080e20fbc       0x44 lib/libgeneric.o
                0x0000000080e20fbc                panic
 .text.simple_itoa
                0x0000000080e21000       0x54 lib/libgeneric.o
                0x0000000080e21000                simple_itoa
 .text.ArpInit  0x0000000080e21054       0x50 net/libnet.o
                0x0000000080e21054                ArpInit
 .text.arp_raw_request
                0x0000000080e210a4       0xc4 net/libnet.o
                0x0000000080e210a4                arp_raw_request
 .text.ArpRequest
                0x0000000080e21168       0xa4 net/libnet.o
                0x0000000080e21168                ArpRequest
 .text.ArpTimeoutCheck
                0x0000000080e2120c       0x84 net/libnet.o
                0x0000000080e2120c                ArpTimeoutCheck
 .text.ArpReceive
                0x0000000080e21290      0x220 net/libnet.o
                0x0000000080e21290                ArpReceive
 .text.BootpHandler
                0x0000000080e214b0      0x378 net/libnet.o
 .text.BootpRequest
                0x0000000080e21828      0x21c net/libnet.o
                0x0000000080e21828                BootpRequest
 .text.BootpTimeout
                0x0000000080e21a44       0x48 net/libnet.o
 .text.__def_eth_init
                0x0000000080e21a8c        0x8 net/libnet.o
                0x0000000080e21a8c                cpu_eth_init
 .text.eth_current_changed
                0x0000000080e21a94       0x60 net/libnet.o
 .text.eth_parse_enetaddr
                0x0000000080e21af4       0x54 net/libnet.o
                0x0000000080e21af4                eth_parse_enetaddr
 .text.eth_getenv_enetaddr
                0x0000000080e21b48       0x5c net/libnet.o
                0x0000000080e21b48                eth_getenv_enetaddr
 .text.eth_setenv_enetaddr
                0x0000000080e21ba4       0x34 net/libnet.o
                0x0000000080e21ba4                eth_setenv_enetaddr
 .text.eth_getenv_enetaddr_by_index
                0x0000000080e21bd8       0x50 net/libnet.o
                0x0000000080e21bd8                eth_getenv_enetaddr_by_index
 .text.eth_get_dev_index
                0x0000000080e21c28       0x1c net/libnet.o
                0x0000000080e21c28                eth_get_dev_index
 .text.eth_write_hwaddr
                0x0000000080e21c44      0x1c8 net/libnet.o
                0x0000000080e21c44                eth_write_hwaddr
 .text.eth_register
                0x0000000080e21e0c       0x7c net/libnet.o
                0x0000000080e21e0c                eth_register
 .text.eth_initialize
                0x0000000080e21e88      0x1c8 net/libnet.o
                0x0000000080e21e88                eth_initialize
 .text.eth_halt
                0x0000000080e22050       0x30 net/libnet.o
                0x0000000080e22050                eth_halt
 .text.eth_send
                0x0000000080e22080       0x38 net/libnet.o
                0x0000000080e22080                eth_send
 .text.eth_rx   0x0000000080e220b8       0x24 net/libnet.o
                0x0000000080e220b8                eth_rx
 .text.eth_try_another
                0x0000000080e220dc       0x84 net/libnet.o
                0x0000000080e220dc                eth_try_another
 .text.eth_init
                0x0000000080e22160       0xe0 net/libnet.o
                0x0000000080e22160                eth_init
 .text.eth_set_current
                0x0000000080e22240       0xa4 net/libnet.o
                0x0000000080e22240                eth_set_current
 .text.eth_get_name
                0x0000000080e222e4       0x20 net/libnet.o
                0x0000000080e222e4                eth_get_name
 .text.startAgainTimeout
                0x0000000080e22304       0x14 net/libnet.o
 .text.dummy_handler
                0x0000000080e22318        0x4 net/libnet.o
 .text.net_clear_handlers
                0x0000000080e2231c       0x34 net/libnet.o
 .text.net_auto_load
                0x0000000080e22350       0x38 net/libnet.o
                0x0000000080e22350                net_auto_load
 .text.NetStartAgain
                0x0000000080e22388      0x154 net/libnet.o
                0x0000000080e22388                NetStartAgain
 .text.net_set_udp_handler
                0x0000000080e224dc       0x20 net/libnet.o
                0x0000000080e224dc                net_set_udp_handler
 .text.net_get_arp_handler
                0x0000000080e224fc       0x10 net/libnet.o
                0x0000000080e224fc                net_get_arp_handler
 .text.NetSetTimeout
                0x0000000080e2250c       0x50 net/libnet.o
                0x0000000080e2250c                NetSetTimeout
 .text.NetCksum
                0x0000000080e2255c       0x34 net/libnet.o
                0x0000000080e2255c                NetCksum
 .text.NetCksumOk
                0x0000000080e22590       0x24 net/libnet.o
                0x0000000080e22590                NetCksumOk
 .text.NetReceive
                0x0000000080e225b4      0x2d8 net/libnet.o
                0x0000000080e225b4                NetReceive
 .text.NetEthHdrSize
                0x0000000080e2288c       0x40 net/libnet.o
                0x0000000080e2288c                NetEthHdrSize
 .text.NetSetEther
                0x0000000080e228cc       0xa8 net/libnet.o
                0x0000000080e228cc                NetSetEther
 .text.net_update_ether
                0x0000000080e22974       0x84 net/libnet.o
                0x0000000080e22974                net_update_ether
 .text.net_set_ip_header
                0x0000000080e229f8       0x88 net/libnet.o
                0x0000000080e229f8                net_set_ip_header
 .text.net_set_udp_header
                0x0000000080e22a80       0xa8 net/libnet.o
                0x0000000080e22a80                net_set_udp_header
 .text.NetSendUDPPacket
                0x0000000080e22b28      0x10c net/libnet.o
                0x0000000080e22b28                NetSendUDPPacket
 .text.copy_filename
                0x0000000080e22c34       0x44 net/libnet.o
                0x0000000080e22c34                copy_filename
 .text.on_bootfile
                0x0000000080e22c78       0x2c net/libnet.o
 .text.ip_to_string
                0x0000000080e22ca4       0x54 net/libnet.o
                0x0000000080e22ca4                ip_to_string
 .text.string_to_VLAN
                0x0000000080e22cf8       0x58 net/libnet.o
                0x0000000080e22cf8                string_to_VLAN
 .text.getenv_VLAN
                0x0000000080e22d50       0x10 net/libnet.o
                0x0000000080e22d50                getenv_VLAN
 .text.NetInitLoop
                0x0000000080e22d60       0xf0 net/libnet.o
 .text.net_init
                0x0000000080e22e50       0x78 net/libnet.o
                0x0000000080e22e50                net_init
 .text.NetLoop  0x0000000080e22ec8      0x324 net/libnet.o
                0x0000000080e22ec8                NetLoop
 .text.ping_timeout
                0x0000000080e231ec       0x1c net/libnet.o
 .text.ping_start
                0x0000000080e23208      0x12c net/libnet.o
                0x0000000080e23208                ping_start
 .text.ping_receive
                0x0000000080e23334       0xe8 net/libnet.o
                0x0000000080e23334                ping_receive
 .text.TftpSend
                0x0000000080e2341c      0x1c8 net/libnet.o
 .text.TftpHandler
                0x0000000080e235e4      0x394 net/libnet.o
 .text.TftpTimeout
                0x0000000080e23978       0x88 net/libnet.o
 .text.TftpStart
                0x0000000080e23a00      0x330 net/libnet.o
                0x0000000080e23a00                TftpStart
 .text          0x0000000080e23d30       0x30 board/anyka/anycloud_ak37e/libanycloud_ak37e.o
                0x0000000080e23d34                lowlevel_init
 .text.board_early_init_f
                0x0000000080e23d60       0x10 board/anyka/anycloud_ak37e/libanycloud_ak37e.o
                0x0000000080e23d60                board_early_init_f
 .text.board_init
                0x0000000080e23d70       0x18 board/anyka/anycloud_ak37e/libanycloud_ak37e.o
                0x0000000080e23d70                board_init
 .text.dram_init
                0x0000000080e23d88       0x20 board/anyka/anycloud_ak37e/libanycloud_ak37e.o
                0x0000000080e23d88                dram_init
 .text.board_eth_init
                0x0000000080e23da8       0x10 board/anyka/anycloud_ak37e/libanycloud_ak37e.o
                0x0000000080e23da8                board_eth_init
 .text.spl_memsize_parse
                0x0000000080e23db8       0x80 board/anyka/anycloud_ak37e/libanycloud_ak37e.o
 .text.flash_init
                0x0000000080e23e38       0xd4 board/anyka/anycloud_ak37e/libanycloud_ak37e.o
                0x0000000080e23e38                flash_init
 .text.write_buff
                0x0000000080e23f0c       0x40 board/anyka/anycloud_ak37e/libanycloud_ak37e.o
                0x0000000080e23f0c                write_buff
 .text.spl_device_parse
                0x0000000080e23f4c      0x43c board/anyka/anycloud_ak37e/libanycloud_ak37e.o
                0x0000000080e23f4c                spl_device_parse
 .text.get_mtdparts_by_partition_name
                0x0000000080e24388       0x7c board/anyka/anycloud_ak37e/libanycloud_ak37e.o
                0x0000000080e24388                get_mtdparts_by_partition_name
 .text.get_mtdparts_by_partition_flash_offset
                0x0000000080e24404       0x9c board/anyka/anycloud_ak37e/libanycloud_ak37e.o
                0x0000000080e24404                get_mtdparts_by_partition_flash_offset
 .text.read_logo_data
                0x0000000080e244a0       0xc0 board/anyka/anycloud_ak37e/libanycloud_ak37e.o
                0x0000000080e244a0                read_logo_data
 .text.read_dtb_data
                0x0000000080e24560       0xc0 board/anyka/anycloud_ak37e/libanycloud_ak37e.o
                0x0000000080e24560                read_dtb_data
 .text.raise    0x0000000080e24620       0x1c /home/leo/workspace/ruian_2wire/common/AK37E_SDK_V1.05_new/os/uboot/arch/arm/lib/eabi_compat.o
                0x0000000080e24620                raise
 .text          0x0000000080e2463c       0xc8 /opt/arm-anykav500-linux-uclibcgnueabi/bin/../lib/gcc/arm-anykav500-linux-uclibcgnueabi/4.9.4/libgcc.a(_udivsi3.o)
                0x0000000080e2463c                __udivsi3
                0x0000000080e2463c                __aeabi_uidiv
                0x0000000080e246e4                __aeabi_uidivmod
 .text          0x0000000080e24704       0xfc /opt/arm-anykav500-linux-uclibcgnueabi/bin/../lib/gcc/arm-anykav500-linux-uclibcgnueabi/4.9.4/libgcc.a(_divsi3.o)
                0x0000000080e24704                __aeabi_idiv
                0x0000000080e24704                __divsi3
                0x0000000080e247e0                __aeabi_idivmod
 .text          0x0000000080e24800       0x1c /opt/arm-anykav500-linux-uclibcgnueabi/bin/../lib/gcc/arm-anykav500-linux-uclibcgnueabi/4.9.4/libgcc.a(_lshrdi3.o)
                0x0000000080e24800                __aeabi_llsr
                0x0000000080e24800                __lshrdi3
 .text          0x0000000080e2481c       0x1c /opt/arm-anykav500-linux-uclibcgnueabi/bin/../lib/gcc/arm-anykav500-linux-uclibcgnueabi/4.9.4/libgcc.a(_ashldi3.o)
                0x0000000080e2481c                __ashldi3
                0x0000000080e2481c                __aeabi_llsl
 .text          0x0000000080e24838       0x3c /opt/arm-anykav500-linux-uclibcgnueabi/bin/../lib/gcc/arm-anykav500-linux-uclibcgnueabi/4.9.4/libgcc.a(_aeabi_uldivmod.o)
                0x0000000080e24838                __aeabi_uldivmod
 .text          0x0000000080e24874       0x10 /opt/arm-anykav500-linux-uclibcgnueabi/bin/../lib/gcc/arm-anykav500-linux-uclibcgnueabi/4.9.4/libgcc.a(_dvmd_lnx.o)
                0x0000000080e24874                __aeabi_ldiv0
                0x0000000080e24874                __aeabi_idiv0
 .text          0x0000000080e24884       0x78 /opt/arm-anykav500-linux-uclibcgnueabi/bin/../lib/gcc/arm-anykav500-linux-uclibcgnueabi/4.9.4/libgcc.a(bpabi.o)
                0x0000000080e24884                __gnu_ldivmod_helper
                0x0000000080e248c0                __gnu_uldivmod_helper
 .text          0x0000000080e248fc      0x15c /opt/arm-anykav500-linux-uclibcgnueabi/bin/../lib/gcc/arm-anykav500-linux-uclibcgnueabi/4.9.4/libgcc.a(_divdi3.o)
                0x0000000080e248fc                __divdi3
 .text          0x0000000080e24a58      0x104 /opt/arm-anykav500-linux-uclibcgnueabi/bin/../lib/gcc/arm-anykav500-linux-uclibcgnueabi/4.9.4/libgcc.a(_udivdi3.o)
                0x0000000080e24a58                __udivdi3

.glue_7         0x0000000080e24b5c        0x0
 .glue_7        0x0000000080e24b5c        0x0 linker stubs

.glue_7t        0x0000000080e24b5c        0x0
 .glue_7t       0x0000000080e24b5c        0x0 linker stubs

.vfp11_veneer   0x0000000080e24b5c        0x0
 .vfp11_veneer  0x0000000080e24b5c        0x0 linker stubs

.v4_bx          0x0000000080e24b5c        0x0
 .v4_bx         0x0000000080e24b5c        0x0 linker stubs

.iplt           0x0000000080e24b5c        0x0
 .iplt          0x0000000080e24b5c        0x0 arch/arm/cpu/arm926ejs/start.o
                0x0000000080e24b5c                . = ALIGN (0x4)

.rodata         0x0000000080e24b5c     0xa486
 *(SORT(.rodata*))
 .rodata        0x0000000080e24b5c       0x80 arch/arm/lib/libarm.o
 .rodata        0x0000000080e24bdc      0x13b common/libcommon.o
 *fill*         0x0000000080e24d17        0x1 
 .rodata.CSWTCH.28
                0x0000000080e24d18       0x20 common/libcommon.o
 .rodata.block_drvr
                0x0000000080e24d38       0x10 disk/libdisk.o
 .rodata.boot_os
                0x0000000080e24d48       0x18 common/libcommon.o
 .rodata.compat_names
                0x0000000080e24d60       0xb4 lib/libgeneric.o
 .rodata.crc_table
                0x0000000080e24e14      0x400 lib/libgeneric.o
 .rodata.env_flags_varaccess_mask
                0x0000000080e25214       0x10 common/libcommon.o
 .rodata.ext_csd_bits.7035
                0x0000000080e25224        0xc drivers/mmc/libmmc.o
 .rodata.ext_to_hostcaps.7036
                0x0000000080e25230        0xc drivers/mmc/libmmc.o
 .rodata.fdt_errtable
                0x0000000080e2523c       0x34 lib/libfdt/libfdt.o
 .rodata.gpio_pin_dir_reg
                0x0000000080e25270        0xc drivers/gpio/libgpio.o
 .rodata.gpio_pin_out_reg
                0x0000000080e2527c        0xc drivers/gpio/libgpio.o
 .rodata.spi_buses
                0x0000000080e25288        0x8 drivers/spi/libspi.o
 .rodata.spi_flash_params_table
                0x0000000080e25290      0x850 drivers/mtd/spi/libspi_flash.o
 .rodata.stage_name
                0x0000000080e25ae0       0x10 common/libcommon.o
 .rodata.uimage_arch
                0x0000000080e25af0      0x108 common/libcommon.o
 .rodata.uimage_comp
                0x0000000080e25bf8       0x48 common/libcommon.o
 .rodata.uimage_os
                0x0000000080e25c40       0x60 common/libcommon.o
 .rodata.uimage_type
                0x0000000080e25ca0       0xd8 common/libcommon.o
 .rodata.widths.7037
                0x0000000080e25d78        0xc drivers/mmc/libmmc.o
 .rodata.Ipsf   0x0000000080e25d84       0x80 common/libcommon.o
 .rodata.crc16_tab
                0x0000000080e25e04      0x200 lib/libgeneric.o
 .rodata        0x0000000080e26004        0x6 drivers/net/libnet.o
 .rodata        0x0000000080e2600a        0xe net/libnet.o
 .rodata.CSWTCH.62
                0x0000000080e26018       0x16 common/libcommon.o
 .rodata.Clip8  0x0000000080e2602e      0x400 common/libcommon.o
 .rodata.Zig    0x0000000080e2642e       0x40 common/libcommon.o
 .rodata.__FUNCTION__.6398
                0x0000000080e2646e       0x10 arch/arm/cpu/arm926ejs/ak37e/libak37e.o
 .rodata.__FUNCTION__.7377
                0x0000000080e2647e       0x17 common/libcommon.o
 .rodata.__func__.6428
                0x0000000080e26495        0xf common/libcommon.o
 .rodata.__func__.6566
                0x0000000080e264a4        0xa common/libcommon.o
 .rodata.__func__.6616
                0x0000000080e264ae        0x8 common/libcommon.o
 .rodata.__func__.6629
                0x0000000080e264b6       0x10 common/libcommon.o
 .rodata.__func__.6646
                0x0000000080e264c6        0xb common/libcommon.o
 .rodata.__func__.6658
                0x0000000080e264d1        0x8 common/libcommon.o
 .rodata.__func__.6682
                0x0000000080e264d9        0xa common/libcommon.o
 .rodata.__func__.6796
                0x0000000080e264e3        0xe common/libcommon.o
 .rodata.__func__.6830
                0x0000000080e264f1        0xe common/libcommon.o
 .rodata.__func__.6873
                0x0000000080e264ff       0x16 drivers/spi/libspi.o
 .rodata.__func__.6890
                0x0000000080e26515       0x15 drivers/spi/libspi.o
 .rodata.__func__.6900
                0x0000000080e2652a       0x10 common/libcommon.o
 .rodata.__func__.6905
                0x0000000080e2653a        0xd drivers/spi/libspi.o
 .rodata.__func__.7059
                0x0000000080e26547        0xf drivers/mmc/libmmc.o
 .rodata.__func__.7124
                0x0000000080e26556        0xf board/anyka/anycloud_ak37e/libanycloud_ak37e.o
 .rodata.__func__.7135
                0x0000000080e26565       0x1f common/libcommon.o
 .rodata.__func__.7142
                0x0000000080e26584       0x13 common/libcommon.o
 .rodata.__func__.7149
                0x0000000080e26597       0x1a common/libcommon.o
 .rodata.__func__.7162
                0x0000000080e265b1       0x17 common/libcommon.o
 .rodata.__func__.7176
                0x0000000080e265c8       0x1a common/libcommon.o
 .rodata.__func__.7250
                0x0000000080e265e2       0x1a common/libcommon.o
 .rodata.__func__.7269
                0x0000000080e265fc        0xe common/libcommon.o
 .rodata.__func__.7346
                0x0000000080e2660a        0xe common/libcommon.o
 .rodata.__func__.7374
                0x0000000080e26618        0xe board/anyka/anycloud_ak37e/libanycloud_ak37e.o
 .rodata.__func__.7740
                0x0000000080e26626       0x15 drivers/mmc/libmmc.o
 .rodata.__func__.7748
                0x0000000080e2663b       0x12 drivers/mmc/libmmc.o
 .rodata.__func__.7844
                0x0000000080e2664d       0x11 drivers/mmc/libmmc.o
 .rodata.__func__.7852
                0x0000000080e2665e       0x12 drivers/mmc/libmmc.o
 .rodata.__func__.7871
                0x0000000080e26670        0xf drivers/mmc/libmmc.o
 .rodata.__func__.8201
                0x0000000080e2667f       0x14 drivers/net/libnet.o
 .rodata.__func__.8241
                0x0000000080e26693        0xe drivers/net/libnet.o
 .rodata.__func__.8487
                0x0000000080e266a1        0x9 drivers/net/libnet.o
 .rodata._ctype
                0x0000000080e266aa      0x100 lib/libgeneric.o
                0x0000000080e266aa                _ctype
 .rodata.default_environment
                0x0000000080e267aa      0x522 common/libcommon.o
                0x0000000080e267aa                default_environment
 .rodata.delims.6503
                0x0000000080e26ccc        0x3 common/libcommon.o
 .rodata.digits.6507
                0x0000000080e26ccf       0x10 lib/libgeneric.o
 .rodata.env_flags_varaccess_rep
                0x0000000080e26cdf        0x5 common/libcommon.o
 .rodata.env_flags_vartype_rep
                0x0000000080e26ce4        0x7 common/libcommon.o
 .rodata.erase_seq
                0x0000000080e26ceb        0x4 common/libcommon.o
 .rodata.hex_asc
                0x0000000080e26cef       0x11 lib/libgeneric.o
 .rodata.names.6508
                0x0000000080e26d00        0x6 lib/libgeneric.o
 .rodata.str1.1
                0x0000000080e26d06       0x6c arch/arm/cpu/arm926ejs/ak37e/libak37e.o
 .rodata.str1.1
                0x0000000080e26d72      0x3e3 arch/arm/lib/libarm.o
                                        0x3f3 (size before relaxing)
 .rodata.str1.1
                0x0000000080e27155     0x460a common/libcommon.o
                                       0x4c3a (size before relaxing)
 .rodata.str1.1
                0x0000000080e2b75f      0x5ee disk/libdisk.o
                                        0x62a (size before relaxing)
 .rodata.str1.1
                0x0000000080e2bd4d       0xba drivers/gpio/libgpio.o
 .rodata.str1.1
                0x0000000080e2be07      0x603 drivers/mmc/libmmc.o
                                        0x672 (size before relaxing)
 .rodata.str1.1
                0x0000000080e2c40a      0x1b4 drivers/mtd/libmtd.o
                                        0x1d6 (size before relaxing)
 .rodata.str1.1
                0x0000000080e2c5be      0xa84 drivers/mtd/spi/libspi_flash.o
                                        0xaee (size before relaxing)
 .rodata.str1.1
                0x0000000080e2d042      0x32e drivers/net/libnet.o
 .rodata.str1.1
                0x0000000080e2d370       0x57 drivers/serial/libserial.o
                                         0x92 (size before relaxing)
 .rodata.str1.1
                0x0000000080e2d3c7      0x1f3 drivers/spi/libspi.o
 .rodata.str1.1
                0x0000000080e2d5ba      0x7cb drivers/video/libvideo.o
 .rodata.str1.1
                0x0000000080e2dd85       0x10 drivers/watchdog/libwatchdog.o
 .rodata.str1.1
                0x0000000080e2dd95      0x1e7 fs/fat/libfat.o
                                        0x214 (size before relaxing)
 .rodata.str1.1
                0x0000000080e2df7c       0xf0 fs/libfs.o
                                        0x129 (size before relaxing)
 .rodata.str1.1
                0x0000000080e2e06c       0xf1 lib/libfdt/libfdt.o
                                        0x11c (size before relaxing)
 .rodata.str1.1
                0x0000000080e2e15d      0x5c0 lib/libgeneric.o
                                        0x5ee (size before relaxing)
 .rodata.str1.1
                0x0000000080e2e71d      0x627 net/libnet.o
                                        0x6e6 (size before relaxing)
 .rodata.str1.1
                0x0000000080e2ed44      0x248 board/anyka/anycloud_ak37e/libanycloud_ak37e.o
                                        0x42a (size before relaxing)
 .rodata.str1.1
                0x0000000080e2ef8c       0x1b /home/leo/workspace/ruian_2wire/common/AK37E_SDK_V1.05_new/os/uboot/arch/arm/lib/eabi_compat.o
 .rodata.tab_seq
                0x0000000080e2efa7        0x9 common/libcommon.o
 .rodata.version_string
                0x0000000080e2efb0       0x32 common/libcommon.o
                0x0000000080e2efb0                version_string

.hash           0x0000000080e2efe4       0x18
 .hash          0x0000000080e2efe4       0x18 arch/arm/cpu/arm926ejs/start.o
                0x0000000080e2effc                . = ALIGN (0x4)

.data           0x0000000080e2effc     0x2386
 *(.data*)
 .data.rel.ro   0x0000000080e2effc        0x0 arch/arm/cpu/arm926ejs/start.o
 .data.L2_INFO_TABLE
                0x0000000080e2effc       0x20 arch/arm/cpu/arm926ejs/ak37e/libak37e.o
 .data.DEVICE_INFO_TABLE
                0x0000000080e2f01c       0x88 arch/arm/cpu/arm926ejs/ak37e/libak37e.o
 .data.init_sequence
                0x0000000080e2f0a4       0x30 arch/arm/lib/libarm.o
                0x0000000080e2f0a4                init_sequence
 .data.bootm_help_text
                0x0000000080e2f0d4      0x38b common/libcommon.o
 *fill*         0x0000000080e2f45f        0x1 
 .data.cmd_bootm_sub
                0x0000000080e2f460       0xfc common/libcommon.o
 .data.tabs.7235
                0x0000000080e2f55c       0x21 common/libcommon.o
 .data.root.7152
                0x0000000080e2f57d        0x2 common/libcommon.o
 .data.fdt_help_text
                0x0000000080e2f57f      0x5e3 common/libcommon.o
 *fill*         0x0000000080e2fb62        0x2 
 .data.dp_last_length
                0x0000000080e2fb64        0x4 common/libcommon.o
 .data.curr_device
                0x0000000080e2fb68        0x4 common/libcommon.o
 .data.mtdparts_help_text
                0x0000000080e2fb6c      0x4d3 common/libcommon.o
 .data.env_help_text
                0x0000000080e3003f      0x1ee common/libcommon.o
 *fill*         0x0000000080e3022d        0x3 
 .data.env_id   0x0000000080e30230        0x4 common/libcommon.o
 .data.cmd_env_sub
                0x0000000080e30234       0xe0 common/libcommon.o
 .data.av_      0x0000000080e30314      0x408 common/libcommon.o
 .data.sbrk_base
                0x0000000080e3071c        0x4 common/libcommon.o
 .data.trim_threshold
                0x0000000080e30720        0x4 common/libcommon.o
 .data.env_htab
                0x0000000080e30724       0x10 common/libcommon.o
                0x0000000080e30724                env_htab
 .data.load_addr
                0x0000000080e30734        0x4 common/libcommon.o
                0x0000000080e30734                load_addr
 .data.hist_cur
                0x0000000080e30738        0x4 common/libcommon.o
 .data.stdio_names
                0x0000000080e3073c        0xc common/libcommon.o
                0x0000000080e3073c                stdio_names
 .data.ak_gpio_sharepin_as_gpio
                0x0000000080e30748      0x7b0 drivers/gpio/libgpio.o
                0x0000000080e30748                ak_gpio_sharepin_as_gpio
 .data.cur_dev_num
                0x0000000080e30ef8        0x4 drivers/mmc/libmmc.o
 .data.status_reg_list
                0x0000000080e30efc      0x368 drivers/mtd/spi/libspi_flash.o
 .data.ak39_serial0_device
                0x0000000080e31264       0x30 drivers/serial/libserial.o
                0x0000000080e31264                ak39_serial0_device
 .data.ak39_serial1_device
                0x0000000080e31294       0x30 drivers/serial/libserial.o
                0x0000000080e31294                ak39_serial1_device
 .data.panel_info
                0x0000000080e312c4       0x6c drivers/video/libvideo.o
                0x0000000080e312c4                panel_info
 .data.fstypes  0x0000000080e31330       0x30 fs/libfs.o
 .data.first_call.6685
                0x0000000080e31360        0x4 net/libnet.o
 .data.NetOurNativeVLAN
                0x0000000080e31364        0x2 net/libnet.o
                0x0000000080e31364                NetOurNativeVLAN
 .data.NetBcastAddr
                0x0000000080e31366        0x6 net/libnet.o
                0x0000000080e31366                NetBcastAddr
 .data.NetOurVLAN
                0x0000000080e3136c        0x2 net/libnet.o
                0x0000000080e3136c                NetOurVLAN
 *fill*         0x0000000080e3136e        0x2 
 .data.TftpTimeoutCountMax
                0x0000000080e31370        0x4 net/libnet.o
 .data.TftpRRQTimeoutCountMax
                0x0000000080e31374        0x4 net/libnet.o
                0x0000000080e31374                TftpRRQTimeoutCountMax
 .data.TftpBlkSizeOption
                0x0000000080e31378        0x2 net/libnet.o
 *fill*         0x0000000080e3137a        0x2 
 .data.TftpTimeoutMSecs
                0x0000000080e3137c        0x4 net/libnet.o
 .data.TftpBlkSize
                0x0000000080e31380        0x2 net/libnet.o

.got            0x0000000080e31384        0x0
 .got           0x0000000080e31384        0x0 arch/arm/cpu/arm926ejs/start.o

.got.plt        0x0000000080e31384        0xc
 .got.plt       0x0000000080e31384        0xc arch/arm/cpu/arm926ejs/start.o
                0x0000000080e31384                _GLOBAL_OFFSET_TABLE_

.igot.plt       0x0000000080e31390        0x0
 .igot.plt      0x0000000080e31390        0x0 arch/arm/cpu/arm926ejs/start.o
                0x0000000080e31390                . = ALIGN (0x4)
                0x0000000080e31390                . = .
                0x0000000080e31390                . = ALIGN (0x4)

.u_boot_list    0x0000000080e31390      0x458
 *(SORT(.u_boot_list*))
 .u_boot_list_2_cmd_1
                0x0000000080e31390        0x0 common/libcommon.o
 .u_boot_list_2_cmd_2_base
                0x0000000080e31390       0x1c common/libcommon.o
                0x0000000080e31390                _u_boot_list_2_cmd_2_base
 .u_boot_list_2_cmd_2_bootm
                0x0000000080e313ac       0x1c common/libcommon.o
                0x0000000080e313ac                _u_boot_list_2_cmd_2_bootm
 .u_boot_list_2_cmd_2_bootp
                0x0000000080e313c8       0x1c common/libcommon.o
                0x0000000080e313c8                _u_boot_list_2_cmd_2_bootp
 .u_boot_list_2_cmd_2_chpart
                0x0000000080e313e4       0x1c common/libcommon.o
                0x0000000080e313e4                _u_boot_list_2_cmd_2_chpart
 .u_boot_list_2_cmd_2_cls
                0x0000000080e31400       0x1c common/libcommon.o
                0x0000000080e31400                _u_boot_list_2_cmd_2_cls
 .u_boot_list_2_cmd_2_cmp
                0x0000000080e3141c       0x1c common/libcommon.o
                0x0000000080e3141c                _u_boot_list_2_cmd_2_cmp
 .u_boot_list_2_cmd_2_cp
                0x0000000080e31438       0x1c common/libcommon.o
                0x0000000080e31438                _u_boot_list_2_cmd_2_cp
 .u_boot_list_2_cmd_2_crc32
                0x0000000080e31454       0x1c common/libcommon.o
                0x0000000080e31454                _u_boot_list_2_cmd_2_crc32
 .u_boot_list_2_cmd_2_env
                0x0000000080e31470       0x1c common/libcommon.o
                0x0000000080e31470                _u_boot_list_2_cmd_2_env
 .u_boot_list_2_cmd_2_fatinfo
                0x0000000080e3148c       0x1c common/libcommon.o
                0x0000000080e3148c                _u_boot_list_2_cmd_2_fatinfo
 .u_boot_list_2_cmd_2_fatload
                0x0000000080e314a8       0x1c common/libcommon.o
                0x0000000080e314a8                _u_boot_list_2_cmd_2_fatload
 .u_boot_list_2_cmd_2_fatls
                0x0000000080e314c4       0x1c common/libcommon.o
                0x0000000080e314c4                _u_boot_list_2_cmd_2_fatls
 .u_boot_list_2_cmd_2_fdt
                0x0000000080e314e0       0x1c common/libcommon.o
                0x0000000080e314e0                _u_boot_list_2_cmd_2_fdt
 .u_boot_list_2_cmd_2_format
                0x0000000080e314fc       0x1c common/libcommon.o
                0x0000000080e314fc                _u_boot_list_2_cmd_2_format
 .u_boot_list_2_cmd_2_go
                0x0000000080e31518       0x1c common/libcommon.o
                0x0000000080e31518                _u_boot_list_2_cmd_2_go
 .u_boot_list_2_cmd_2_help
                0x0000000080e31534       0x1c common/libcommon.o
                0x0000000080e31534                _u_boot_list_2_cmd_2_help
 .u_boot_list_2_cmd_2_loadb
                0x0000000080e31550       0x1c common/libcommon.o
                0x0000000080e31550                _u_boot_list_2_cmd_2_loadb
 .u_boot_list_2_cmd_2_loadx
                0x0000000080e3156c       0x1c common/libcommon.o
                0x0000000080e3156c                _u_boot_list_2_cmd_2_loadx
 .u_boot_list_2_cmd_2_loady
                0x0000000080e31588       0x1c common/libcommon.o
                0x0000000080e31588                _u_boot_list_2_cmd_2_loady
 .u_boot_list_2_cmd_2_loop
                0x0000000080e315a4       0x1c common/libcommon.o
                0x0000000080e315a4                _u_boot_list_2_cmd_2_loop
 .u_boot_list_2_cmd_2_md
                0x0000000080e315c0       0x1c common/libcommon.o
                0x0000000080e315c0                _u_boot_list_2_cmd_2_md
 .u_boot_list_2_cmd_2_mm
                0x0000000080e315dc       0x1c common/libcommon.o
                0x0000000080e315dc                _u_boot_list_2_cmd_2_mm
 .u_boot_list_2_cmd_2_mmc
                0x0000000080e315f8       0x1c common/libcommon.o
                0x0000000080e315f8                _u_boot_list_2_cmd_2_mmc
 .u_boot_list_2_cmd_2_mmcinfo
                0x0000000080e31614       0x1c common/libcommon.o
                0x0000000080e31614                _u_boot_list_2_cmd_2_mmcinfo
 .u_boot_list_2_cmd_2_mtdparts
                0x0000000080e31630       0x1c common/libcommon.o
                0x0000000080e31630                _u_boot_list_2_cmd_2_mtdparts
 .u_boot_list_2_cmd_2_mw
                0x0000000080e3164c       0x1c common/libcommon.o
                0x0000000080e3164c                _u_boot_list_2_cmd_2_mw
 .u_boot_list_2_cmd_2_nm
                0x0000000080e31668       0x1c common/libcommon.o
                0x0000000080e31668                _u_boot_list_2_cmd_2_nm
 .u_boot_list_2_cmd_2_ping
                0x0000000080e31684       0x1c common/libcommon.o
                0x0000000080e31684                _u_boot_list_2_cmd_2_ping
 .u_boot_list_2_cmd_2_printenv
                0x0000000080e316a0       0x1c common/libcommon.o
                0x0000000080e316a0                _u_boot_list_2_cmd_2_printenv
 .u_boot_list_2_cmd_2_question_mark
                0x0000000080e316bc       0x1c common/libcommon.o
                0x0000000080e316bc                _u_boot_list_2_cmd_2_question_mark
 .u_boot_list_2_cmd_2_reset
                0x0000000080e316d8       0x1c common/libcommon.o
                0x0000000080e316d8                _u_boot_list_2_cmd_2_reset
 .u_boot_list_2_cmd_2_run
                0x0000000080e316f4       0x1c common/libcommon.o
                0x0000000080e316f4                _u_boot_list_2_cmd_2_run
 .u_boot_list_2_cmd_2_saveenv
                0x0000000080e31710       0x1c common/libcommon.o
                0x0000000080e31710                _u_boot_list_2_cmd_2_saveenv
 .u_boot_list_2_cmd_2_sd_upgrade
                0x0000000080e3172c       0x1c common/libcommon.o
                0x0000000080e3172c                _u_boot_list_2_cmd_2_sd_upgrade
 .u_boot_list_2_cmd_2_setenv
                0x0000000080e31748       0x1c common/libcommon.o
                0x0000000080e31748                _u_boot_list_2_cmd_2_setenv
 .u_boot_list_2_cmd_2_sf
                0x0000000080e31764       0x1c common/libcommon.o
                0x0000000080e31764                _u_boot_list_2_cmd_2_sf
 .u_boot_list_2_cmd_2_tftpboot
                0x0000000080e31780       0x1c common/libcommon.o
                0x0000000080e31780                _u_boot_list_2_cmd_2_tftpboot
 .u_boot_list_2_cmd_2_version
                0x0000000080e3179c       0x1c common/libcommon.o
                0x0000000080e3179c                _u_boot_list_2_cmd_2_version
 .u_boot_list_2_cmd_3
                0x0000000080e317b8        0x0 common/libcommon.o
 .u_boot_list_2_env_clbk_1
                0x0000000080e317b8        0x0 common/libcommon.o
 .u_boot_list_2_env_clbk_2_baudrate
                0x0000000080e317b8        0x8 drivers/serial/libserial.o
                0x0000000080e317b8                _u_boot_list_2_env_clbk_2_baudrate
 .u_boot_list_2_env_clbk_2_bootfile
                0x0000000080e317c0        0x8 net/libnet.o
                0x0000000080e317c0                _u_boot_list_2_env_clbk_2_bootfile
 .u_boot_list_2_env_clbk_2_callbacks
                0x0000000080e317c8        0x8 common/libcommon.o
                0x0000000080e317c8                _u_boot_list_2_env_clbk_2_callbacks
 .u_boot_list_2_env_clbk_2_console
                0x0000000080e317d0        0x8 common/libcommon.o
                0x0000000080e317d0                _u_boot_list_2_env_clbk_2_console
 .u_boot_list_2_env_clbk_2_flags
                0x0000000080e317d8        0x8 common/libcommon.o
                0x0000000080e317d8                _u_boot_list_2_env_clbk_2_flags
 .u_boot_list_2_env_clbk_2_loadaddr
                0x0000000080e317e0        0x8 common/libcommon.o
                0x0000000080e317e0                _u_boot_list_2_env_clbk_2_loadaddr
 .u_boot_list_2_env_clbk_3
                0x0000000080e317e8        0x0 common/libcommon.o
                0x0000000080e317e8                . = ALIGN (0x4)

.image_copy_end
                0x0000000080e317e8        0x0
 *(.__image_copy_end)
 .__image_copy_end
                0x0000000080e317e8        0x0 arch/arm/lib/libarm.o

.rel_dyn_start  0x0000000080e317e8        0x0
 *(.__rel_dyn_start)
 .__rel_dyn_start
                0x0000000080e317e8        0x0 arch/arm/lib/libarm.o

.rel.dyn        0x0000000080e317e8     0x5ae8
 *(.rel*)
 .rel.got       0x0000000080e317e8        0x0 arch/arm/cpu/arm926ejs/start.o
 .rel.plt       0x0000000080e317e8        0x0 arch/arm/cpu/arm926ejs/start.o
 .rel.bss       0x0000000080e317e8        0x0 arch/arm/cpu/arm926ejs/start.o
 .rel.data.rel.ro
                0x0000000080e317e8        0x0 arch/arm/cpu/arm926ejs/start.o
 .rel.iplt      0x0000000080e317e8        0x0 arch/arm/cpu/arm926ejs/start.o
 .rel.text      0x0000000080e317e8       0x70 arch/arm/cpu/arm926ejs/start.o
 .rel.text.l2_init
                0x0000000080e31858        0x8 arch/arm/cpu/arm926ejs/start.o
 .rel.text.l2_combuf_dma
                0x0000000080e31860        0x8 arch/arm/cpu/arm926ejs/start.o
 .rel.text.l2_clear_dma
                0x0000000080e31868        0x8 arch/arm/cpu/arm926ejs/start.o
 .rel.text.l2_combuf_wait_dma_finish
                0x0000000080e31870        0x8 arch/arm/cpu/arm926ejs/start.o
 .rel.text.l2_alloc
                0x0000000080e31878       0x10 arch/arm/cpu/arm926ejs/start.o
 .rel.text.l2_free
                0x0000000080e31888       0x18 arch/arm/cpu/arm926ejs/start.o
 .rel.text.ak39_soft_reset
                0x0000000080e318a0       0x20 arch/arm/cpu/arm926ejs/start.o
 .rel.text.default_isr
                0x0000000080e318c0        0x8 arch/arm/cpu/arm926ejs/start.o
 .rel.text.ak_do_irq
                0x0000000080e318c8        0x8 arch/arm/cpu/arm926ejs/start.o
 .rel.text.ak_irq_install_handler
                0x0000000080e318d0        0x8 arch/arm/cpu/arm926ejs/start.o
 .rel.text.ak_arch_interrupt_init
                0x0000000080e318d8        0x8 arch/arm/cpu/arm926ejs/start.o
 .rel.text.sysctl_clock
                0x0000000080e318e0        0x0 arch/arm/cpu/arm926ejs/start.o
 .rel.text.sysctl_get_clock_state
                0x0000000080e318e0        0x0 arch/arm/cpu/arm926ejs/start.o
 .rel.text.display_banner
                0x0000000080e318e0       0x10 arch/arm/cpu/arm926ejs/start.o
 .rel.text.init_baudrate
                0x0000000080e318f0        0x8 arch/arm/cpu/arm926ejs/start.o
 .rel.text.board_init_f
                0x0000000080e318f8       0x28 arch/arm/cpu/arm926ejs/start.o
 .rel.text.board_init_r
                0x0000000080e31920       0x70 arch/arm/cpu/arm926ejs/start.o
 .rel.text.boot_jump_linux
                0x0000000080e31990       0x28 arch/arm/cpu/arm926ejs/start.o
 .rel.text.boot_prep_linux
                0x0000000080e319b8       0x20 arch/arm/cpu/arm926ejs/start.o
 .rel.text.interrupt_init
                0x0000000080e319d8       0x18 arch/arm/cpu/arm926ejs/start.o
 .rel.text.bad_mode
                0x0000000080e319f0        0x8 arch/arm/cpu/arm926ejs/start.o
 .rel.text.show_regs
                0x0000000080e319f8       0x50 arch/arm/cpu/arm926ejs/start.o
 .rel.text.do_undefined_instruction
                0x0000000080e31a48        0x8 arch/arm/cpu/arm926ejs/start.o
 .rel.text.do_software_interrupt
                0x0000000080e31a50        0x8 arch/arm/cpu/arm926ejs/start.o
 .rel.text.do_prefetch_abort
                0x0000000080e31a58        0x8 arch/arm/cpu/arm926ejs/start.o
 .rel.text.do_data_abort
                0x0000000080e31a60        0x8 arch/arm/cpu/arm926ejs/start.o
 .rel.text.do_not_used
                0x0000000080e31a68        0x8 arch/arm/cpu/arm926ejs/start.o
 .rel.text.do_fiq
                0x0000000080e31a70        0x8 arch/arm/cpu/arm926ejs/start.o
 .rel.text.do_reset
                0x0000000080e31a78        0x8 arch/arm/cpu/arm926ejs/start.o
 .rel.rodata    0x0000000080e31a80      0x160 arch/arm/cpu/arm926ejs/start.o
 .rel.data.init_sequence
                0x0000000080e31be0       0x58 arch/arm/cpu/arm926ejs/start.o
 .rel.text.do_go
                0x0000000080e31c38       0x10 arch/arm/cpu/arm926ejs/start.o
 .rel.text.do_bootm_states.isra.16.constprop.17
                0x0000000080e31c48      0x120 arch/arm/cpu/arm926ejs/start.o
 .rel.text.do_bootm
                0x0000000080e31d68       0x18 arch/arm/cpu/arm926ejs/start.o
 .rel.text.bootm_maybe_autostart
                0x0000000080e31d80       0x20 arch/arm/cpu/arm926ejs/start.o
 .rel.text.do_fat_fsinfo
                0x0000000080e31da0       0x10 arch/arm/cpu/arm926ejs/start.o
 .rel.text.fdt_valid
                0x0000000080e31db0       0x28 arch/arm/cpu/arm926ejs/start.o
 .rel.text.is_printable_string
                0x0000000080e31dd8        0x8 arch/arm/cpu/arm926ejs/start.o
 .rel.text.print_data
                0x0000000080e31de0       0x58 arch/arm/cpu/arm926ejs/start.o
 .rel.text.set_working_fdt_addr
                0x0000000080e31e38       0x10 arch/arm/cpu/arm926ejs/start.o
 .rel.text.do_fdt
                0x0000000080e31e48      0x240 arch/arm/cpu/arm926ejs/start.o
 .rel.text.do_help
                0x0000000080e32088       0x10 arch/arm/cpu/arm926ejs/start.o
 .rel.text.bin_data_init
                0x0000000080e32098       0x18 arch/arm/cpu/arm926ejs/start.o
 .rel.text.k_data_save
                0x0000000080e320b0       0x30 arch/arm/cpu/arm926ejs/start.o
 .rel.text.k_data_restore
                0x0000000080e320e0       0x30 arch/arm/cpu/arm926ejs/start.o
 .rel.text.load_serial_ymodem
                0x0000000080e32110       0x20 arch/arm/cpu/arm926ejs/start.o
 .rel.text.bin_data_char
                0x0000000080e32130       0x10 arch/arm/cpu/arm926ejs/start.o
 .rel.text.chk1.constprop.1
                0x0000000080e32140        0x8 arch/arm/cpu/arm926ejs/start.o
 .rel.text.s1_sendpacket.constprop.2
                0x0000000080e32148       0x18 arch/arm/cpu/arm926ejs/start.o
 .rel.text.do_load_serial_bin
                0x0000000080e32160       0xe8 arch/arm/cpu/arm926ejs/start.o
 .rel.text.read_envbk_spec
                0x0000000080e32248       0x20 arch/arm/cpu/arm926ejs/start.o
 .rel.text.do_format
                0x0000000080e32268        0x8 arch/arm/cpu/arm926ejs/start.o
 .rel.text.do_mem_base
                0x0000000080e32270       0x10 arch/arm/cpu/arm926ejs/start.o
 .rel.text.do_mem_mw
                0x0000000080e32280       0x18 arch/arm/cpu/arm926ejs/start.o
 .rel.text.do_mem_cmp
                0x0000000080e32298       0x30 arch/arm/cpu/arm926ejs/start.o
 .rel.text.do_mem_md
                0x0000000080e322c8       0x20 arch/arm/cpu/arm926ejs/start.o
 .rel.text.do_mem_cp
                0x0000000080e322e8       0x20 arch/arm/cpu/arm926ejs/start.o
 .rel.text.do_mem_crc
                0x0000000080e32308       0x10 arch/arm/cpu/arm926ejs/start.o
 .rel.text.mod_mem.isra.3
                0x0000000080e32318       0x58 arch/arm/cpu/arm926ejs/start.o
 .rel.text.do_mmcops
                0x0000000080e32370       0xb8 arch/arm/cpu/arm926ejs/start.o
 .rel.text.do_mmcinfo
                0x0000000080e32428       0xa0 arch/arm/cpu/arm926ejs/start.o
 .rel.text.memsize_format
                0x0000000080e324c8       0x20 arch/arm/cpu/arm926ejs/start.o
 .rel.text.generate_mtdparts_save.constprop.7
                0x0000000080e324e8       0x28 arch/arm/cpu/arm926ejs/start.o
 .rel.text.device_delall.constprop.9
                0x0000000080e32510        0x8 arch/arm/cpu/arm926ejs/start.o
 .rel.text.get_mtd_info.constprop.10
                0x0000000080e32518       0x28 arch/arm/cpu/arm926ejs/start.o
 .rel.text.part_validate
                0x0000000080e32540       0x48 arch/arm/cpu/arm926ejs/start.o
 .rel.text.device_find
                0x0000000080e32588        0x8 arch/arm/cpu/arm926ejs/start.o
 .rel.text.mtd_id_parse
                0x0000000080e32590       0x30 arch/arm/cpu/arm926ejs/start.o
 .rel.text.mtd_part_info
                0x0000000080e325c0       0x20 arch/arm/cpu/arm926ejs/start.o
 .rel.text.find_dev_and_part
                0x0000000080e325e0       0x40 arch/arm/cpu/arm926ejs/start.o
 .rel.text.index_partitions
                0x0000000080e32620       0x28 arch/arm/cpu/arm926ejs/start.o
 .rel.text.current_save
                0x0000000080e32648       0x40 arch/arm/cpu/arm926ejs/start.o
 .rel.text.mtd_devices_init
                0x0000000080e32688       0x10 arch/arm/cpu/arm926ejs/start.o
 .rel.text.device_del
                0x0000000080e32698       0x18 arch/arm/cpu/arm926ejs/start.o
 .rel.text.part_sort_add
                0x0000000080e326b0       0x18 arch/arm/cpu/arm926ejs/start.o
 .rel.text.device_parse
                0x0000000080e326c8       0xb0 arch/arm/cpu/arm926ejs/start.o
 .rel.text.mtdparts_init
                0x0000000080e32778       0xe8 arch/arm/cpu/arm926ejs/start.o
 .rel.text.do_chpart
                0x0000000080e32860       0x38 arch/arm/cpu/arm926ejs/start.o
 .rel.text.do_mtdparts
                0x0000000080e32898       0xf8 arch/arm/cpu/arm926ejs/start.o
 .rel.text.netboot_common
                0x0000000080e32990       0xa8 arch/arm/cpu/arm926ejs/start.o
 .rel.text.do_ping
                0x0000000080e32a38       0x18 arch/arm/cpu/arm926ejs/start.o
 .rel.text.do_env_delete
                0x0000000080e32a50       0x10 arch/arm/cpu/arm926ejs/start.o
 .rel.text.do_env
                0x0000000080e32a60        0x8 arch/arm/cpu/arm926ejs/start.o
 .rel.text.env_print
                0x0000000080e32a68       0x18 arch/arm/cpu/arm926ejs/start.o
 .rel.text.do_env_print
                0x0000000080e32a80       0x10 arch/arm/cpu/arm926ejs/start.o
 .rel.text.do_env_import
                0x0000000080e32a90       0x50 arch/arm/cpu/arm926ejs/start.o
 .rel.text.do_env_default
                0x0000000080e32ae0        0x8 arch/arm/cpu/arm926ejs/start.o
 .rel.text._do_env_set.isra.0
                0x0000000080e32ae8       0x30 arch/arm/cpu/arm926ejs/start.o
 .rel.text.get_env_id
                0x0000000080e32b18        0x8 arch/arm/cpu/arm926ejs/start.o
 .rel.text.setenv
                0x0000000080e32b20        0x8 arch/arm/cpu/arm926ejs/start.o
 .rel.text.setenv_hex
                0x0000000080e32b28        0x8 arch/arm/cpu/arm926ejs/start.o
 .rel.text.do_env_export
                0x0000000080e32b30       0x40 arch/arm/cpu/arm926ejs/start.o
 .rel.text.getenv_f
                0x0000000080e32b70        0x8 arch/arm/cpu/arm926ejs/start.o
 .rel.text.getenv
                0x0000000080e32b78        0x8 arch/arm/cpu/arm926ejs/start.o
 .rel.text.partitions_mtdparts_parse
                0x0000000080e32b80       0x30 arch/arm/cpu/arm926ejs/start.o
 .rel.text.partitions_mtdparts_parse_by_envimg
                0x0000000080e32bb0        0x8 arch/arm/cpu/arm926ejs/start.o
 .rel.text.partitions_mtdparts_parse_by_sdcard.isra.3
                0x0000000080e32bb8        0x8 arch/arm/cpu/arm926ejs/start.o
 .rel.text.do_sd_upgrade
                0x0000000080e32bc0      0x118 arch/arm/cpu/arm926ejs/start.o
 .rel.text.upgarde_file_partitions_check
                0x0000000080e32cd8       0x10 arch/arm/cpu/arm926ejs/start.o
 .rel.text.upgrade_file_data_partition_check
                0x0000000080e32ce8        0x8 arch/arm/cpu/arm926ejs/start.o
 .rel.text.upgrade_file_tuya_partition_check
                0x0000000080e32cf0        0x8 arch/arm/cpu/arm926ejs/start.o
 .rel.text.upgrade_file_app_partition_check
                0x0000000080e32cf8        0x8 arch/arm/cpu/arm926ejs/start.o
 .rel.text.upgrade_file_usr_partition_check
                0x0000000080e32d00        0x8 arch/arm/cpu/arm926ejs/start.o
 .rel.text.upgrade_file_config_partition_check
                0x0000000080e32d08        0x8 arch/arm/cpu/arm926ejs/start.o
 .rel.text.upgrade_file_rootfs_partition_check
                0x0000000080e32d10        0x8 arch/arm/cpu/arm926ejs/start.o
 .rel.text.upgrade_file_logo_partition_check
                0x0000000080e32d18        0x8 arch/arm/cpu/arm926ejs/start.o
 .rel.text.upgrade_file_uImage_partition_check
                0x0000000080e32d20        0x8 arch/arm/cpu/arm926ejs/start.o
 .rel.text.upgrade_file_dtb_partition_check
                0x0000000080e32d28        0x8 arch/arm/cpu/arm926ejs/start.o
 .rel.text.upgrade_file_envbkimg_partition_check
                0x0000000080e32d30        0x8 arch/arm/cpu/arm926ejs/start.o
 .rel.text.upgrade_file_envimg_partition_check
                0x0000000080e32d38        0x8 arch/arm/cpu/arm926ejs/start.o
 .rel.text.upgarde_file_uboot_partition_check
                0x0000000080e32d40        0x8 arch/arm/cpu/arm926ejs/start.o
 .rel.text.do_spi_flash_probe
                0x0000000080e32d48       0x10 arch/arm/cpu/arm926ejs/start.o
 .rel.text.show_time
                0x0000000080e32d58       0x10 arch/arm/cpu/arm926ejs/start.o
 .rel.text.do_spi_flash
                0x0000000080e32d68      0x128 arch/arm/cpu/arm926ejs/start.o
 .rel.text.spi_flash_get_size
                0x0000000080e32e90        0x0 arch/arm/cpu/arm926ejs/start.o
 .rel.text.do_version
                0x0000000080e32e90       0x20 arch/arm/cpu/arm926ejs/start.o
 .rel.text.find_cmd
                0x0000000080e32eb0       0x10 arch/arm/cpu/arm926ejs/start.o
 .rel.text.cmd_usage
                0x0000000080e32ec0       0x18 arch/arm/cpu/arm926ejs/start.o
 .rel.text._do_help
                0x0000000080e32ed8       0x10 arch/arm/cpu/arm926ejs/start.o
 .rel.text.var_complete
                0x0000000080e32ee8       0x10 arch/arm/cpu/arm926ejs/start.o
 .rel.text.cmd_auto_complete
                0x0000000080e32ef8       0x48 arch/arm/cpu/arm926ejs/start.o
 .rel.text.cmd_get_data_size
                0x0000000080e32f40        0x8 arch/arm/cpu/arm926ejs/start.o
 .rel.text.cmd_process
                0x0000000080e32f48        0x8 arch/arm/cpu/arm926ejs/start.o
 .rel.text.console_setfile
                0x0000000080e32f50       0x10 arch/arm/cpu/arm926ejs/start.o
 .rel.text.fgetc
                0x0000000080e32f60        0x8 arch/arm/cpu/arm926ejs/start.o
 .rel.text.ftstc
                0x0000000080e32f68        0x8 arch/arm/cpu/arm926ejs/start.o
 .rel.text.fputc
                0x0000000080e32f70        0x0 arch/arm/cpu/arm926ejs/start.o
 .rel.text.fputs
                0x0000000080e32f70        0x0 arch/arm/cpu/arm926ejs/start.o
 .rel.text.putc
                0x0000000080e32f70        0x8 arch/arm/cpu/arm926ejs/start.o
 .rel.text.puts
                0x0000000080e32f78        0x8 arch/arm/cpu/arm926ejs/start.o
 .rel.text.ctrlc
                0x0000000080e32f80       0x10 arch/arm/cpu/arm926ejs/start.o
 .rel.text.disable_ctrlc
                0x0000000080e32f90        0x8 arch/arm/cpu/arm926ejs/start.o
 .rel.text.had_ctrlc
                0x0000000080e32f98        0x8 arch/arm/cpu/arm926ejs/start.o
 .rel.text.clear_ctrlc
                0x0000000080e32fa0        0x8 arch/arm/cpu/arm926ejs/start.o
 .rel.text.on_console
                0x0000000080e32fa8       0x20 arch/arm/cpu/arm926ejs/start.o
 .rel.text.stdio_print_current_devices
                0x0000000080e32fc8       0x40 arch/arm/cpu/arm926ejs/start.o
 .rel.text.console_init_r
                0x0000000080e33008       0x10 arch/arm/cpu/arm926ejs/start.o
 .rel.text.sbrk
                0x0000000080e33018       0x18 arch/arm/cpu/arm926ejs/start.o
 .rel.text.mem_malloc_init
                0x0000000080e33030       0x18 arch/arm/cpu/arm926ejs/start.o
 .rel.text.malloc_trim
                0x0000000080e33048       0x18 arch/arm/cpu/arm926ejs/start.o
 .rel.text.free
                0x0000000080e33060       0x18 arch/arm/cpu/arm926ejs/start.o
 .rel.text.malloc
                0x0000000080e33078       0x40 arch/arm/cpu/arm926ejs/start.o
 .rel.text.calloc
                0x0000000080e330b8        0x8 arch/arm/cpu/arm926ejs/start.o
 .rel.text.realloc
                0x0000000080e330c0        0x0 arch/arm/cpu/arm926ejs/start.o
 .rel.text.mallopt
                0x0000000080e330c0        0x0 arch/arm/cpu/arm926ejs/start.o
 .rel.text.env_attr_lookup
                0x0000000080e330c0        0x8 arch/arm/cpu/arm926ejs/start.o
 .rel.text.find_env_callback
                0x0000000080e330c8       0x10 arch/arm/cpu/arm926ejs/start.o
 .rel.text.on_callbacks
                0x0000000080e330d8       0x20 arch/arm/cpu/arm926ejs/start.o
 .rel.text.set_callback
                0x0000000080e330f8        0x8 arch/arm/cpu/arm926ejs/start.o
 .rel.text.env_callback_init
                0x0000000080e33100       0x10 arch/arm/cpu/arm926ejs/start.o
 .rel.text.env_get_addr
                0x0000000080e33110        0x8 arch/arm/cpu/arm926ejs/start.o
 .rel.text.env_get_char
                0x0000000080e33118        0x8 arch/arm/cpu/arm926ejs/start.o
 .rel.text.set_default_env
                0x0000000080e33120       0x38 arch/arm/cpu/arm926ejs/start.o
 .rel.text.set_default_vars
                0x0000000080e33158       0x10 arch/arm/cpu/arm926ejs/start.o
 .rel.text.env_import
                0x0000000080e33168       0x78 arch/arm/cpu/arm926ejs/start.o
 .rel.text.env_import_spl
                0x0000000080e331e0        0x0 arch/arm/cpu/arm926ejs/start.o
 .rel.text.env_relocate
                0x0000000080e331e0        0x8 arch/arm/cpu/arm926ejs/start.o
 .rel.text.env_complete
                0x0000000080e331e8       0x18 arch/arm/cpu/arm926ejs/start.o
 .rel.text.skip_num
                0x0000000080e33200        0x8 arch/arm/cpu/arm926ejs/start.o
 .rel.text.on_flags
                0x0000000080e33208       0x20 arch/arm/cpu/arm926ejs/start.o
 .rel.text.env_flags_parse_vartype
                0x0000000080e33228       0x10 arch/arm/cpu/arm926ejs/start.o
 .rel.text.env_flags_parse_varaccess
                0x0000000080e33238       0x10 arch/arm/cpu/arm926ejs/start.o
 .rel.text.set_flags
                0x0000000080e33248       0x10 arch/arm/cpu/arm926ejs/start.o
 .rel.text.env_flags_init
                0x0000000080e33258       0x20 arch/arm/cpu/arm926ejs/start.o
 .rel.text.env_flags_validate
                0x0000000080e33278       0x68 arch/arm/cpu/arm926ejs/start.o
 .rel.text.saveenv
                0x0000000080e332e0       0x58 arch/arm/cpu/arm926ejs/start.o
 .rel.text.env_relocate_spec
                0x0000000080e33338       0x18 arch/arm/cpu/arm926ejs/start.o
 .rel.text.env_relocate_spec_spl
                0x0000000080e33350        0x0 arch/arm/cpu/arm926ejs/start.o
 .rel.text.env_init
                0x0000000080e33350        0x8 arch/arm/cpu/arm926ejs/start.o
 .rel.text.jumptable_init
                0x0000000080e33358       0x98 arch/arm/cpu/arm926ejs/start.o
 .rel.text.of_bus_default_count_cells
                0x0000000080e333f0        0x0 arch/arm/cpu/arm926ejs/start.o
 .rel.text.fdt_initrd
                0x0000000080e333f0       0x30 arch/arm/cpu/arm926ejs/start.o
 .rel.text.fdt_chosen
                0x0000000080e33420       0x30 arch/arm/cpu/arm926ejs/start.o
 .rel.text.do_fixup_by_path
                0x0000000080e33450        0x0 arch/arm/cpu/arm926ejs/start.o
 .rel.text.fdt_fixup_memory_banks
                0x0000000080e33450       0x58 arch/arm/cpu/arm926ejs/start.o
 .rel.text.fdt_fixup_ethernet
                0x0000000080e334a8        0x0 arch/arm/cpu/arm926ejs/start.o
 .rel.text.fdt_del_node_and_alias
                0x0000000080e334a8        0x0 arch/arm/cpu/arm926ejs/start.o
 .rel.text.fdt_translate_address
                0x0000000080e334a8        0x0 arch/arm/cpu/arm926ejs/start.o
 .rel.text.fdt_node_offset_by_compat_reg
                0x0000000080e334a8        0x0 arch/arm/cpu/arm926ejs/start.o
 .rel.text.fdt_set_phandle
                0x0000000080e334a8        0x0 arch/arm/cpu/arm926ejs/start.o
 .rel.text.fdt_create_phandle
                0x0000000080e334a8        0x0 arch/arm/cpu/arm926ejs/start.o
 .rel.text.fdt_set_node_status
                0x0000000080e334a8        0x0 arch/arm/cpu/arm926ejs/start.o
 .rel.text.fdt_add_edid
                0x0000000080e334a8        0x0 arch/arm/cpu/arm926ejs/start.o
 .rel.text.fdt_verify_alias_address
                0x0000000080e334a8        0x0 arch/arm/cpu/arm926ejs/start.o
 .rel.text.fdt_get_base_address
                0x0000000080e334a8        0x0 arch/arm/cpu/arm926ejs/start.o
 .rel.text.addr2info
                0x0000000080e334a8        0x8 arch/arm/cpu/arm926ejs/start.o
 .rel.text.flash_perror
                0x0000000080e334b0       0x58 arch/arm/cpu/arm926ejs/start.o
 .rel.text.hash_block
                0x0000000080e33508        0x0 arch/arm/cpu/arm926ejs/start.o
 .rel.text.hash_command
                0x0000000080e33508        0x0 arch/arm/cpu/arm926ejs/start.o
 .rel.text.fdt_error
                0x0000000080e33508       0x10 arch/arm/cpu/arm926ejs/start.o
 .rel.text.boot_fdt_add_mem_rsv_regions
                0x0000000080e33518        0x8 arch/arm/cpu/arm926ejs/start.o
 .rel.text.boot_relocate_fdt
                0x0000000080e33520       0x38 arch/arm/cpu/arm926ejs/start.o
 .rel.text.boot_get_fdt
                0x0000000080e33558       0x78 arch/arm/cpu/arm926ejs/start.o
 .rel.text.image_setup_libfdt
                0x0000000080e335d0       0x20 arch/arm/cpu/arm926ejs/start.o
 .rel.text.on_loadaddr
                0x0000000080e335f0        0x8 arch/arm/cpu/arm926ejs/start.o
 .rel.text.getenv_bootm_low
                0x0000000080e335f8        0x8 arch/arm/cpu/arm926ejs/start.o
 .rel.text.getenv_bootm_size
                0x0000000080e33600       0x10 arch/arm/cpu/arm926ejs/start.o
 .rel.text.getenv_bootm_mapsize
                0x0000000080e33610        0x8 arch/arm/cpu/arm926ejs/start.o
 .rel.text.genimg_print_size
                0x0000000080e33618       0x10 arch/arm/cpu/arm926ejs/start.o
 .rel.text.genimg_get_os_name
                0x0000000080e33628       0x10 arch/arm/cpu/arm926ejs/start.o
 .rel.text.genimg_get_arch_name
                0x0000000080e33638       0x10 arch/arm/cpu/arm926ejs/start.o
 .rel.text.genimg_get_type_name
                0x0000000080e33648       0x10 arch/arm/cpu/arm926ejs/start.o
 .rel.text.genimg_get_comp_name
                0x0000000080e33658       0x10 arch/arm/cpu/arm926ejs/start.o
 .rel.text.image_print_contents
                0x0000000080e33668       0x50 arch/arm/cpu/arm926ejs/start.o
 .rel.text.genimg_get_os_id
                0x0000000080e336b8        0x0 arch/arm/cpu/arm926ejs/start.o
 .rel.text.genimg_get_arch_id
                0x0000000080e336b8        0x0 arch/arm/cpu/arm926ejs/start.o
 .rel.text.genimg_get_type_id
                0x0000000080e336b8        0x0 arch/arm/cpu/arm926ejs/start.o
 .rel.text.genimg_get_comp_id
                0x0000000080e336b8        0x0 arch/arm/cpu/arm926ejs/start.o
 .rel.text.boot_get_ramdisk
                0x0000000080e336b8       0x50 arch/arm/cpu/arm926ejs/start.o
 .rel.text.boot_ramdisk_high
                0x0000000080e33708       0x20 arch/arm/cpu/arm926ejs/start.o
 .rel.text.lcd_set_flush_dcache
                0x0000000080e33728        0x0 arch/arm/cpu/arm926ejs/start.o
 .rel.text.lcd_get_size
                0x0000000080e33728        0x8 arch/arm/cpu/arm926ejs/start.o
 .rel.text.lcd_sync
                0x0000000080e33730       0x10 arch/arm/cpu/arm926ejs/start.o
 .rel.text.console_scrollup
                0x0000000080e33740        0x0 arch/arm/cpu/arm926ejs/start.o
 .rel.text.lcd_putc
                0x0000000080e33740        0x0 arch/arm/cpu/arm926ejs/start.o
 .rel.text.lcd_puts
                0x0000000080e33740        0x0 arch/arm/cpu/arm926ejs/start.o
 .rel.text.drv_lcd_init
                0x0000000080e33740       0x50 arch/arm/cpu/arm926ejs/start.o
 .rel.text.lcd_clear
                0x0000000080e33790       0x40 arch/arm/cpu/arm926ejs/start.o
 .rel.text.lcd_setmem
                0x0000000080e337d0       0x20 arch/arm/cpu/arm926ejs/start.o
 .rel.text.lcd_getfgcolor
                0x0000000080e337f0        0x0 arch/arm/cpu/arm926ejs/start.o
 .rel.text.lcd_position_cursor
                0x0000000080e337f0        0x0 arch/arm/cpu/arm926ejs/start.o
 .rel.text.lcd_get_pixel_width
                0x0000000080e337f0        0x0 arch/arm/cpu/arm926ejs/start.o
 .rel.text.lcd_get_pixel_height
                0x0000000080e337f0        0x0 arch/arm/cpu/arm926ejs/start.o
 .rel.text.lcd_get_screen_rows
                0x0000000080e337f0        0x0 arch/arm/cpu/arm926ejs/start.o
 .rel.text.lcd_get_screen_columns
                0x0000000080e337f0        0x0 arch/arm/cpu/arm926ejs/start.o
 .rel.text.delete_char.part.1
                0x0000000080e337f0       0x10 arch/arm/cpu/arm926ejs/start.o
 .rel.text.cread_add_char
                0x0000000080e33800        0x8 arch/arm/cpu/arm926ejs/start.o
 .rel.text.readline_into_buffer
                0x0000000080e33808       0xb0 arch/arm/cpu/arm926ejs/start.o
 .rel.text.readline
                0x0000000080e338b8        0x8 arch/arm/cpu/arm926ejs/start.o
 .rel.text.parse_line
                0x0000000080e338c0        0x8 arch/arm/cpu/arm926ejs/start.o
 .rel.text.builtin_run_command
                0x0000000080e338c8        0x8 arch/arm/cpu/arm926ejs/start.o
 .rel.text.main_loop
                0x0000000080e338d0       0x98 arch/arm/cpu/arm926ejs/start.o
 .rel.text.do_run
                0x0000000080e33968        0x8 arch/arm/cpu/arm926ejs/start.o
 .rel.text.srec_decode
                0x0000000080e33970        0x0 arch/arm/cpu/arm926ejs/start.o
 .rel.text.uboot_logo_sjpg_decode
                0x0000000080e33970       0x28 arch/arm/cpu/arm926ejs/start.o
 .rel.text.stdio_get_list
                0x0000000080e33998        0x8 arch/arm/cpu/arm926ejs/start.o
 .rel.text.stdio_get_by_name
                0x0000000080e339a0        0x8 arch/arm/cpu/arm926ejs/start.o
 .rel.text.stdio_register
                0x0000000080e339a8        0x8 arch/arm/cpu/arm926ejs/start.o
 .rel.text.stdio_init
                0x0000000080e339b0       0x30 arch/arm/cpu/arm926ejs/start.o
 .rel.text.jd_prepare
                0x0000000080e339e0      0x100 arch/arm/cpu/arm926ejs/start.o
 .rel.text.jd_decomp
                0x0000000080e33ae0       0x10 arch/arm/cpu/arm926ejs/start.o
 .rel.text.xyzModem_get_hdr
                0x0000000080e33af0       0x30 arch/arm/cpu/arm926ejs/start.o
 .rel.text.xyzModem_stream_open
                0x0000000080e33b20       0x10 arch/arm/cpu/arm926ejs/start.o
 .rel.text.xyzModem_stream_read
                0x0000000080e33b30        0x8 arch/arm/cpu/arm926ejs/start.o
 .rel.text.xyzModem_stream_close
                0x0000000080e33b38       0x20 arch/arm/cpu/arm926ejs/start.o
 .rel.text.xyzModem_stream_terminate
                0x0000000080e33b58        0x8 arch/arm/cpu/arm926ejs/start.o
 .rel.text.xyzModem_error
                0x0000000080e33b60       0x10 arch/arm/cpu/arm926ejs/start.o
 .rel.rodata.boot_os
                0x0000000080e33b70        0x8 arch/arm/cpu/arm926ejs/start.o
 .rel.rodata.stage_name
                0x0000000080e33b78       0x20 arch/arm/cpu/arm926ejs/start.o
 .rel.rodata.uimage_comp
                0x0000000080e33b98       0x60 arch/arm/cpu/arm926ejs/start.o
 .rel.rodata.uimage_os
                0x0000000080e33bf8       0x78 arch/arm/cpu/arm926ejs/start.o
 .rel.rodata.uimage_arch
                0x0000000080e33c70      0x158 arch/arm/cpu/arm926ejs/start.o
 .rel.rodata.uimage_type
                0x0000000080e33dc8      0x118 arch/arm/cpu/arm926ejs/start.o
 .rel.rodata.CSWTCH.28
                0x0000000080e33ee0       0x40 arch/arm/cpu/arm926ejs/start.o
 .rel.u_boot_list_2_cmd_2_go
                0x0000000080e33f20       0x20 arch/arm/cpu/arm926ejs/start.o
 .rel.u_boot_list_2_cmd_2_reset
                0x0000000080e33f40       0x20 arch/arm/cpu/arm926ejs/start.o
 .rel.u_boot_list_2_cmd_2_bootm
                0x0000000080e33f60       0x20 arch/arm/cpu/arm926ejs/start.o
 .rel.data.cmd_bootm_sub
                0x0000000080e33f80       0xd8 arch/arm/cpu/arm926ejs/start.o
 .rel.u_boot_list_2_cmd_2_fatinfo
                0x0000000080e34058       0x20 arch/arm/cpu/arm926ejs/start.o
 .rel.u_boot_list_2_cmd_2_fatload
                0x0000000080e34078       0x20 arch/arm/cpu/arm926ejs/start.o
 .rel.u_boot_list_2_cmd_2_fatls
                0x0000000080e34098       0x20 arch/arm/cpu/arm926ejs/start.o
 .rel.u_boot_list_2_cmd_2_fdt
                0x0000000080e340b8       0x20 arch/arm/cpu/arm926ejs/start.o
 .rel.u_boot_list_2_cmd_2_question_mark
                0x0000000080e340d8       0x20 arch/arm/cpu/arm926ejs/start.o
 .rel.u_boot_list_2_cmd_2_help
                0x0000000080e340f8       0x20 arch/arm/cpu/arm926ejs/start.o
 .rel.u_boot_list_2_cmd_2_loadb
                0x0000000080e34118       0x20 arch/arm/cpu/arm926ejs/start.o
 .rel.u_boot_list_2_cmd_2_format
                0x0000000080e34138       0x20 arch/arm/cpu/arm926ejs/start.o
 .rel.u_boot_list_2_cmd_2_loady
                0x0000000080e34158       0x20 arch/arm/cpu/arm926ejs/start.o
 .rel.u_boot_list_2_cmd_2_loadx
                0x0000000080e34178       0x20 arch/arm/cpu/arm926ejs/start.o
 .rel.u_boot_list_2_cmd_2_base
                0x0000000080e34198       0x20 arch/arm/cpu/arm926ejs/start.o
 .rel.u_boot_list_2_cmd_2_cmp
                0x0000000080e341b8       0x20 arch/arm/cpu/arm926ejs/start.o
 .rel.u_boot_list_2_cmd_2_nm
                0x0000000080e341d8       0x20 arch/arm/cpu/arm926ejs/start.o
 .rel.u_boot_list_2_cmd_2_loop
                0x0000000080e341f8       0x20 arch/arm/cpu/arm926ejs/start.o
 .rel.u_boot_list_2_cmd_2_cp
                0x0000000080e34218       0x20 arch/arm/cpu/arm926ejs/start.o
 .rel.u_boot_list_2_cmd_2_mm
                0x0000000080e34238       0x20 arch/arm/cpu/arm926ejs/start.o
 .rel.u_boot_list_2_cmd_2_crc32
                0x0000000080e34258       0x20 arch/arm/cpu/arm926ejs/start.o
 .rel.u_boot_list_2_cmd_2_md
                0x0000000080e34278       0x20 arch/arm/cpu/arm926ejs/start.o
 .rel.u_boot_list_2_cmd_2_mw
                0x0000000080e34298       0x20 arch/arm/cpu/arm926ejs/start.o
 .rel.u_boot_list_2_cmd_2_mmcinfo
                0x0000000080e342b8       0x20 arch/arm/cpu/arm926ejs/start.o
 .rel.u_boot_list_2_cmd_2_mmc
                0x0000000080e342d8       0x20 arch/arm/cpu/arm926ejs/start.o
 .rel.u_boot_list_2_cmd_2_mtdparts
                0x0000000080e342f8       0x20 arch/arm/cpu/arm926ejs/start.o
 .rel.u_boot_list_2_cmd_2_chpart
                0x0000000080e34318       0x20 arch/arm/cpu/arm926ejs/start.o
 .rel.u_boot_list_2_cmd_2_ping
                0x0000000080e34338       0x20 arch/arm/cpu/arm926ejs/start.o
 .rel.u_boot_list_2_cmd_2_bootp
                0x0000000080e34358       0x20 arch/arm/cpu/arm926ejs/start.o
 .rel.u_boot_list_2_cmd_2_tftpboot
                0x0000000080e34378       0x20 arch/arm/cpu/arm926ejs/start.o
 .rel.u_boot_list_2_cmd_2_setenv
                0x0000000080e34398       0x28 arch/arm/cpu/arm926ejs/start.o
 .rel.u_boot_list_2_cmd_2_env
                0x0000000080e343c0       0x20 arch/arm/cpu/arm926ejs/start.o
 .rel.u_boot_list_2_cmd_2_saveenv
                0x0000000080e343e0       0x20 arch/arm/cpu/arm926ejs/start.o
 .rel.data.cmd_env_sub
                0x0000000080e34400      0x100 arch/arm/cpu/arm926ejs/start.o
 .rel.u_boot_list_2_cmd_2_printenv
                0x0000000080e34500       0x28 arch/arm/cpu/arm926ejs/start.o
 .rel.u_boot_list_2_cmd_2_run
                0x0000000080e34528       0x28 arch/arm/cpu/arm926ejs/start.o
 .rel.u_boot_list_2_cmd_2_sd_upgrade
                0x0000000080e34550       0x20 arch/arm/cpu/arm926ejs/start.o
 .rel.u_boot_list_2_cmd_2_sf
                0x0000000080e34570       0x20 arch/arm/cpu/arm926ejs/start.o
 .rel.u_boot_list_2_cmd_2_version
                0x0000000080e34590       0x20 arch/arm/cpu/arm926ejs/start.o
 .rel.u_boot_list_2_env_clbk_2_console
                0x0000000080e345b0       0x10 arch/arm/cpu/arm926ejs/start.o
 .rel.data.av_  0x0000000080e345c0      0x800 arch/arm/cpu/arm926ejs/start.o
 .rel.u_boot_list_2_env_clbk_2_callbacks
                0x0000000080e34dc0       0x10 arch/arm/cpu/arm926ejs/start.o
 .rel.data.env_htab
                0x0000000080e34dd0        0x8 arch/arm/cpu/arm926ejs/start.o
 .rel.u_boot_list_2_env_clbk_2_flags
                0x0000000080e34dd8       0x10 arch/arm/cpu/arm926ejs/start.o
 .rel.data.env_name_spec
                0x0000000080e34de8        0x0 arch/arm/cpu/arm926ejs/start.o
 .rel.data.of_busses
                0x0000000080e34de8        0x0 arch/arm/cpu/arm926ejs/start.o
 .rel.data.hash_algo
                0x0000000080e34de8        0x0 arch/arm/cpu/arm926ejs/start.o
 .rel.u_boot_list_2_env_clbk_2_loadaddr
                0x0000000080e34de8       0x10 arch/arm/cpu/arm926ejs/start.o
 .rel.u_boot_list_2_cmd_2_cls
                0x0000000080e34df8       0x20 arch/arm/cpu/arm926ejs/start.o
 .rel.data.stdio_names
                0x0000000080e34e18       0x18 arch/arm/cpu/arm926ejs/start.o
 .rel.text.get_dev
                0x0000000080e34e30        0x8 arch/arm/cpu/arm926ejs/start.o
 .rel.text.dev_print
                0x0000000080e34e38      0x110 arch/arm/cpu/arm926ejs/start.o
 .rel.text.print_part
                0x0000000080e34f48       0xa0 arch/arm/cpu/arm926ejs/start.o
 .rel.text.get_device
                0x0000000080e34fe8       0x10 arch/arm/cpu/arm926ejs/start.o
 .rel.text.get_device_and_partition
                0x0000000080e34ff8       0x70 arch/arm/cpu/arm926ejs/start.o
 .rel.text.test_block_type
                0x0000000080e35068       0x40 arch/arm/cpu/arm926ejs/start.o
 .rel.text.print_partition_extended
                0x0000000080e350a8       0x50 arch/arm/cpu/arm926ejs/start.o
 .rel.text.get_partition_info_extended.constprop.2
                0x0000000080e350f8       0x80 arch/arm/cpu/arm926ejs/start.o
 .rel.text.test_part_dos
                0x0000000080e35178       0x20 arch/arm/cpu/arm926ejs/start.o
 .rel.text.print_part_dos
                0x0000000080e35198        0x8 arch/arm/cpu/arm926ejs/start.o
 .rel.text.get_partition_info_dos
                0x0000000080e351a0       0x10 arch/arm/cpu/arm926ejs/start.o
 .rel.rodata.block_drvr
                0x0000000080e351b0       0x10 arch/arm/cpu/arm926ejs/start.o
 .rel.text.gpio_set_pin_level
                0x0000000080e351c0       0x18 arch/arm/cpu/arm926ejs/start.o
 .rel.text.gpio_get_pin_level
                0x0000000080e351d8        0x0 arch/arm/cpu/arm926ejs/start.o
 .rel.text.gpio_set_pin_dir
                0x0000000080e351d8       0x18 arch/arm/cpu/arm926ejs/start.o
 .rel.text.gpio_set_pull_up_r
                0x0000000080e351f0        0x0 arch/arm/cpu/arm926ejs/start.o
 .rel.text.gpio_set_pull_down_r
                0x0000000080e351f0        0x0 arch/arm/cpu/arm926ejs/start.o
 .rel.text.gpio_set_pin_as_gpio
                0x0000000080e351f0       0x18 arch/arm/cpu/arm926ejs/start.o
 .rel.text.gpio_int_restoreall
                0x0000000080e35208        0x0 arch/arm/cpu/arm926ejs/start.o
 .rel.text.key_matrix_decode_fdt
                0x0000000080e35208        0x0 arch/arm/cpu/arm926ejs/start.o
 .rel.text.mmc_set_capacity
                0x0000000080e35208       0x40 arch/arm/cpu/arm926ejs/start.o
 .rel.text.mmc_send_status
                0x0000000080e35248       0x10 arch/arm/cpu/arm926ejs/start.o
 .rel.text.find_mmc_device
                0x0000000080e35258       0x10 arch/arm/cpu/arm926ejs/start.o
 .rel.text.mmc_bread
                0x0000000080e35268       0x10 arch/arm/cpu/arm926ejs/start.o
 .rel.text.mmc_startup
                0x0000000080e35278       0xe8 arch/arm/cpu/arm926ejs/start.o
 .rel.text.mmc_register
                0x0000000080e35360       0x28 arch/arm/cpu/arm926ejs/start.o
 .rel.text.mmc_start_init
                0x0000000080e35388       0x48 arch/arm/cpu/arm926ejs/start.o
 .rel.text.print_mmc_devices
                0x0000000080e353d0       0x20 arch/arm/cpu/arm926ejs/start.o
 .rel.text.get_mmc_num
                0x0000000080e353f0        0x8 arch/arm/cpu/arm926ejs/start.o
 .rel.text.mmc_initialize
                0x0000000080e353f8       0x38 arch/arm/cpu/arm926ejs/start.o
 .rel.text.ak_mmc_setup_gpio_in
                0x0000000080e35430       0x10 arch/arm/cpu/arm926ejs/start.o
 .rel.text.send_cmd.isra.3
                0x0000000080e35440       0x10 arch/arm/cpu/arm926ejs/start.o
 .rel.text.ak_mmc_init_setup
                0x0000000080e35450       0x50 arch/arm/cpu/arm926ejs/start.o
 .rel.text.ak_mmc_send_cmd
                0x0000000080e354a0       0x38 arch/arm/cpu/arm926ejs/start.o
 .rel.text.ak_mmc_set_ios
                0x0000000080e354d8       0x18 arch/arm/cpu/arm926ejs/start.o
 .rel.text.ak_sdhsmmc_init
                0x0000000080e354f0       0x50 arch/arm/cpu/arm926ejs/start.o
 .rel.text.sd_init_info
                0x0000000080e35540       0x48 arch/arm/cpu/arm926ejs/start.o
 .rel.text.mmc_berase
                0x0000000080e35588       0x10 arch/arm/cpu/arm926ejs/start.o
 .rel.text.mmc_bwrite
                0x0000000080e35598       0x18 arch/arm/cpu/arm926ejs/start.o
 .rel.text.add_mtd_device
                0x0000000080e355b0       0x18 arch/arm/cpu/arm926ejs/start.o
 .rel.text.del_mtd_device
                0x0000000080e355c8        0x0 arch/arm/cpu/arm926ejs/start.o
 .rel.text.get_mtd_device
                0x0000000080e355c8        0x0 arch/arm/cpu/arm926ejs/start.o
 .rel.text.get_mtd_device_nm
                0x0000000080e355c8        0x8 arch/arm/cpu/arm926ejs/start.o
 .rel.text.put_mtd_device
                0x0000000080e355d0        0x0 arch/arm/cpu/arm926ejs/start.o
 .rel.text.mtd_erase_callback
                0x0000000080e355d0        0x0 arch/arm/cpu/arm926ejs/start.o
 .rel.text.del_mtd_partitions
                0x0000000080e355d0        0x0 arch/arm/cpu/arm926ejs/start.o
 .rel.text.add_mtd_partitions
                0x0000000080e355d0        0x0 arch/arm/cpu/arm926ejs/start.o
 .rel.text.spi_flash_probe
                0x0000000080e355d0       0x88 arch/arm/cpu/arm926ejs/start.o
 .rel.text.set_feature
                0x0000000080e35658        0x0 arch/arm/cpu/arm926ejs/start.o
 .rel.text.get_feature
                0x0000000080e35658        0x0 arch/arm/cpu/arm926ejs/start.o
 .rel.text.wait_cmd_finish
                0x0000000080e35658        0x0 arch/arm/cpu/arm926ejs/start.o
 .rel.text.spinand_IsInit
                0x0000000080e35658        0x0 arch/arm/cpu/arm926ejs/start.o
 .rel.text.spi_nand_erase
                0x0000000080e35658        0x0 arch/arm/cpu/arm926ejs/start.o
 .rel.text.spinand_flash_erase_inter
                0x0000000080e35658        0x0 arch/arm/cpu/arm926ejs/start.o
 .rel.text.spi_nand_read_noecc
                0x0000000080e35658        0x0 arch/arm/cpu/arm926ejs/start.o
 .rel.text.spi_nand_read
                0x0000000080e35658        0x0 arch/arm/cpu/arm926ejs/start.o
 .rel.text.spinand_flash_read_inter
                0x0000000080e35658        0x0 arch/arm/cpu/arm926ejs/start.o
 .rel.text.spi_nand_write
                0x0000000080e35658        0x0 arch/arm/cpu/arm926ejs/start.o
 .rel.text.spinand_flash_write_inter
                0x0000000080e35658        0x0 arch/arm/cpu/arm926ejs/start.o
 .rel.text.spinand_setbadblock
                0x0000000080e35658        0x0 arch/arm/cpu/arm926ejs/start.o
 .rel.text.spinand_set_no_protection
                0x0000000080e35658        0x0 arch/arm/cpu/arm926ejs/start.o
 .rel.text.spinand_flash_probe
                0x0000000080e35658        0x0 arch/arm/cpu/arm926ejs/start.o
 .rel.text.spinand_erase_partition
                0x0000000080e35658        0x0 arch/arm/cpu/arm926ejs/start.o
 .rel.text.spinand_read_partition
                0x0000000080e35658        0x0 arch/arm/cpu/arm926ejs/start.o
 .rel.text.spinand_read_partition_with_oob
                0x0000000080e35658        0x0 arch/arm/cpu/arm926ejs/start.o
 .rel.text.spinand_write_partition
                0x0000000080e35658        0x0 arch/arm/cpu/arm926ejs/start.o
 .rel.text.spinand_write_partition_with_oob
                0x0000000080e35658        0x0 arch/arm/cpu/arm926ejs/start.o
 .rel.text.spi_flash_cmd_erase_ops
                0x0000000080e35658        0x8 arch/arm/cpu/arm926ejs/start.o
 .rel.rodata.spi_flash_params_table
                0x0000000080e35660      0x260 arch/arm/cpu/arm926ejs/start.o
 .rel.data.status_reg_list
                0x0000000080e358c0      0x1d0 arch/arm/cpu/arm926ejs/start.o
 .rel.data.ak_spinand_param_supportlist
                0x0000000080e35a90        0x0 arch/arm/cpu/arm926ejs/start.o
 .rel.text.ak_gmac_phy_software_reset
                0x0000000080e35a90       0x10 arch/arm/cpu/arm926ejs/start.o
 .rel.text.smc_send
                0x0000000080e35aa0        0x8 arch/arm/cpu/arm926ejs/start.o
 .rel.text.get_eth_reset_gpio
                0x0000000080e35aa8       0x20 arch/arm/cpu/arm926ejs/start.o
 .rel.text.get_eth1_reset_gpio
                0x0000000080e35ac8       0x20 arch/arm/cpu/arm926ejs/start.o
 .rel.text.smc_init
                0x0000000080e35ae8       0x88 arch/arm/cpu/arm926ejs/start.o
 .rel.text.ak39_ethernet_initialize
                0x0000000080e35b70       0x68 arch/arm/cpu/arm926ejs/start.o
 .rel.text.serial_init_dev
                0x0000000080e35bd8        0x8 arch/arm/cpu/arm926ejs/start.o
 .rel.text._serial_getc
                0x0000000080e35be0        0x8 arch/arm/cpu/arm926ejs/start.o
 .rel.text._serial_tstc
                0x0000000080e35be8        0x8 arch/arm/cpu/arm926ejs/start.o
 .rel.text.default_serial_console
                0x0000000080e35bf0        0x8 arch/arm/cpu/arm926ejs/start.o
 .rel.text.ak39_serial_initialize
                0x0000000080e35bf8       0x10 arch/arm/cpu/arm926ejs/start.o
 .rel.text.get_current
                0x0000000080e35c08       0x10 arch/arm/cpu/arm926ejs/start.o
 .rel.text.serial_register
                0x0000000080e35c18        0x8 arch/arm/cpu/arm926ejs/start.o
 .rel.text.serial_stdio_init
                0x0000000080e35c20        0x8 arch/arm/cpu/arm926ejs/start.o
 .rel.text.serial_assign
                0x0000000080e35c28       0x10 arch/arm/cpu/arm926ejs/start.o
 .rel.text.serial_reinit_all
                0x0000000080e35c38        0x0 arch/arm/cpu/arm926ejs/start.o
 .rel.text.on_baudrate
                0x0000000080e35c38       0x18 arch/arm/cpu/arm926ejs/start.o
 .rel.data.ak39_serial0_device
                0x0000000080e35c50       0x30 arch/arm/cpu/arm926ejs/start.o
 .rel.data.ak39_serial1_device
                0x0000000080e35c80       0x30 arch/arm/cpu/arm926ejs/start.o
 .rel.u_boot_list_2_env_clbk_2_baudrate
                0x0000000080e35cb0       0x10 arch/arm/cpu/arm926ejs/start.o
 .rel.text.spi_setup_slave
                0x0000000080e35cc0       0x20 arch/arm/cpu/arm926ejs/start.o
 .rel.text.ak_spi_read_cpu
                0x0000000080e35ce0       0x10 arch/arm/cpu/arm926ejs/start.o
 .rel.text.ak_spi_write_cpu
                0x0000000080e35cf0       0x20 arch/arm/cpu/arm926ejs/start.o
 .rel.text.ak_spi_write_internal
                0x0000000080e35d10       0x18 arch/arm/cpu/arm926ejs/start.o
 .rel.text.ak_spi_read_internal
                0x0000000080e35d28       0x10 arch/arm/cpu/arm926ejs/start.o
 .rel.text.ak_spi_write
                0x0000000080e35d38       0x10 arch/arm/cpu/arm926ejs/start.o
 .rel.text.ak_spi_txrx
                0x0000000080e35d48        0x0 arch/arm/cpu/arm926ejs/start.o
 .rel.text.spi_xfer
                0x0000000080e35d48        0x8 arch/arm/cpu/arm926ejs/start.o
 .rel.text.mipi_panel_cmd_setting
                0x0000000080e35d50        0x8 arch/arm/cpu/arm926ejs/start.o
 .rel.text.ak_lcd_parameter_parse_dt1
                0x0000000080e35d58      0x110 arch/arm/cpu/arm926ejs/start.o
 .rel.text.ak_lcd_parameter_parse_dt2
                0x0000000080e35e68      0x128 arch/arm/cpu/arm926ejs/start.o
 .rel.text.ak_lcd_parameter_parse_dt3
                0x0000000080e35f90       0x78 arch/arm/cpu/arm926ejs/start.o
 .rel.text.lcd_ctrl_init
                0x0000000080e36008       0xb8 arch/arm/cpu/arm926ejs/start.o
 .rel.text.lcd_enable
                0x0000000080e360c0       0x10 arch/arm/cpu/arm926ejs/start.o
 .rel.text.lcd_disable
                0x0000000080e360d0        0x8 arch/arm/cpu/arm926ejs/start.o
 .rel.text.wdt_keepalive
                0x0000000080e360d8        0x8 arch/arm/cpu/arm926ejs/start.o
 .rel.text.downcase
                0x0000000080e360e0        0x8 arch/arm/cpu/arm926ejs/start.o
 .rel.text.disk_read
                0x0000000080e360e8       0x10 arch/arm/cpu/arm926ejs/start.o
 .rel.text.get_cluster
                0x0000000080e360f8        0x8 arch/arm/cpu/arm926ejs/start.o
 .rel.text.read_bootsectandvi
                0x0000000080e36100       0x20 arch/arm/cpu/arm926ejs/start.o
 .rel.text.get_vfatname
                0x0000000080e36120       0x10 arch/arm/cpu/arm926ejs/start.o
 .rel.text.fat_set_blk_dev
                0x0000000080e36130       0x28 arch/arm/cpu/arm926ejs/start.o
 .rel.text.fat_register_device
                0x0000000080e36158        0x0 arch/arm/cpu/arm926ejs/start.o
 .rel.text.do_fat_read_at
                0x0000000080e36158       0x58 arch/arm/cpu/arm926ejs/start.o
 .rel.text.file_fat_detectfs
                0x0000000080e361b0       0xb0 arch/arm/cpu/arm926ejs/start.o
 .rel.text.file_fat_read_at
                0x0000000080e36260        0x8 arch/arm/cpu/arm926ejs/start.o
 .rel.text.fat_read_file
                0x0000000080e36268        0x8 arch/arm/cpu/arm926ejs/start.o
 .rel.text.file_getfsname
                0x0000000080e36270        0x0 arch/arm/cpu/arm926ejs/start.o
 .rel.text.file_cd
                0x0000000080e36270        0x0 arch/arm/cpu/arm926ejs/start.o
 .rel.text.file_detectfs
                0x0000000080e36270        0x0 arch/arm/cpu/arm926ejs/start.o
 .rel.text.file_ls
                0x0000000080e36270        0x0 arch/arm/cpu/arm926ejs/start.o
 .rel.text.file_read
                0x0000000080e36270        0x0 arch/arm/cpu/arm926ejs/start.o
 .rel.rodata.filesystems
                0x0000000080e36270        0x0 arch/arm/cpu/arm926ejs/start.o
 .rel.text.fs_probe_unsupported
                0x0000000080e36270        0x8 arch/arm/cpu/arm926ejs/start.o
 .rel.text.fs_get_info
                0x0000000080e36278        0x8 arch/arm/cpu/arm926ejs/start.o
 .rel.text.fs_close
                0x0000000080e36280        0x8 arch/arm/cpu/arm926ejs/start.o
 .rel.text.fs_set_blk_dev
                0x0000000080e36288       0x20 arch/arm/cpu/arm926ejs/start.o
 .rel.text.fs_ls
                0x0000000080e362a8        0x8 arch/arm/cpu/arm926ejs/start.o
 .rel.text.fs_read
                0x0000000080e362b0       0x20 arch/arm/cpu/arm926ejs/start.o
 .rel.text.fs_write
                0x0000000080e362d0        0x0 arch/arm/cpu/arm926ejs/start.o
 .rel.text.do_load
                0x0000000080e362d0       0x50 arch/arm/cpu/arm926ejs/start.o
 .rel.text.do_ls
                0x0000000080e36320        0x8 arch/arm/cpu/arm926ejs/start.o
 .rel.text.do_save
                0x0000000080e36328        0x0 arch/arm/cpu/arm926ejs/start.o
 .rel.data.fstypes
                0x0000000080e36328       0x48 arch/arm/cpu/arm926ejs/start.o
 .rel.text.fdt_next_tag
                0x0000000080e36370       0x48 arch/arm/cpu/arm926ejs/start.o
 .rel.text.fdt_create_empty_tree
                0x0000000080e363b8        0x0 arch/arm/cpu/arm926ejs/start.o
 .rel.text.fdt_get_phandle
                0x0000000080e363b8        0x0 arch/arm/cpu/arm926ejs/start.o
 .rel.text.fdt_get_alias_namelen
                0x0000000080e363b8        0x8 arch/arm/cpu/arm926ejs/start.o
 .rel.text.fdt_node_check_compatible
                0x0000000080e363c0        0x8 arch/arm/cpu/arm926ejs/start.o
 .rel.text.fdt_strerror
                0x0000000080e363c8       0x20 arch/arm/cpu/arm926ejs/start.o
 .rel.text.fdt_find_regions
                0x0000000080e363e8        0x0 arch/arm/cpu/arm926ejs/start.o
 .rel.rodata.fdt_errtable
                0x0000000080e363e8       0x58 arch/arm/cpu/arm926ejs/start.o
 .rel.text.cyg_crc16
                0x0000000080e36440        0x8 arch/arm/cpu/arm926ejs/start.o
 .rel.text.crc32_no_comp
                0x0000000080e36448        0x8 arch/arm/cpu/arm926ejs/start.o
 .rel.text.crc_GenTable32
                0x0000000080e36450        0x0 arch/arm/cpu/arm926ejs/start.o
 .rel.text.crc7
                0x0000000080e36450        0x0 arch/arm/cpu/arm926ejs/start.o
 .rel.text.display_options
                0x0000000080e36450        0x0 arch/arm/cpu/arm926ejs/start.o
 .rel.text.print_size
                0x0000000080e36450       0x28 arch/arm/cpu/arm926ejs/start.o
 .rel.text.print_buffer
                0x0000000080e36478       0x28 arch/arm/cpu/arm926ejs/start.o
 .rel.text.fdtdec_get_compatible
                0x0000000080e364a0        0x0 arch/arm/cpu/arm926ejs/start.o
 .rel.text.fdtdec_get_is_enabled
                0x0000000080e364a0       0x10 arch/arm/cpu/arm926ejs/start.o
 .rel.text.fdtdec_lookup
                0x0000000080e364b0        0x0 arch/arm/cpu/arm926ejs/start.o
 .rel.text.fdtdec_next_compatible
                0x0000000080e364b0        0x8 arch/arm/cpu/arm926ejs/start.o
 .rel.text.fdtdec_next_compatible_subnode
                0x0000000080e364b8        0x0 arch/arm/cpu/arm926ejs/start.o
 .rel.text.fdtdec_next_compatible_subnode_sta
                0x0000000080e364b8       0x10 arch/arm/cpu/arm926ejs/start.o
 .rel.text.fdtdec_next_alias
                0x0000000080e364c8        0x0 arch/arm/cpu/arm926ejs/start.o
 .rel.text.fdtdec_add_aliases_for_id
                0x0000000080e364c8        0x0 arch/arm/cpu/arm926ejs/start.o
 .rel.text.fdtdec_prepare_fdt
                0x0000000080e364c8        0x8 arch/arm/cpu/arm926ejs/start.o
 .rel.text.fdtdec_get_config_int
                0x0000000080e364d0        0x8 arch/arm/cpu/arm926ejs/start.o
 .rel.text.fdtdec_get_config_bool
                0x0000000080e364d8        0x0 arch/arm/cpu/arm926ejs/start.o
 .rel.text.fdtdec_get_config_string
                0x0000000080e364d8        0x8 arch/arm/cpu/arm926ejs/start.o
 .rel.text.hang
                0x0000000080e364e0        0x8 arch/arm/cpu/arm926ejs/start.o
 .rel.text.match_string.isra.3
                0x0000000080e364e8        0x8 arch/arm/cpu/arm926ejs/start.o
 .rel.text.hcreate_r
                0x0000000080e364f0        0x8 arch/arm/cpu/arm926ejs/start.o
 .rel.text.hdestroy_r
                0x0000000080e364f8        0x8 arch/arm/cpu/arm926ejs/start.o
 .rel.text.hmatch_r
                0x0000000080e36500        0x8 arch/arm/cpu/arm926ejs/start.o
 .rel.text.hsearch_r
                0x0000000080e36508        0x8 arch/arm/cpu/arm926ejs/start.o
 .rel.text.hdelete_r
                0x0000000080e36510        0x8 arch/arm/cpu/arm926ejs/start.o
 .rel.text.hexport_r
                0x0000000080e36518       0x18 arch/arm/cpu/arm926ejs/start.o
 .rel.text.himport_r
                0x0000000080e36530       0x20 arch/arm/cpu/arm926ejs/start.o
 .rel.text.skip_spaces
                0x0000000080e36550        0x8 arch/arm/cpu/arm926ejs/start.o
 .rel.text.strim
                0x0000000080e36558        0x8 arch/arm/cpu/arm926ejs/start.o
 .rel.text.lmb_alloc_base
                0x0000000080e36560        0x8 arch/arm/cpu/arm926ejs/start.o
 .rel.text.strncasecmp
                0x0000000080e36568        0x0 arch/arm/cpu/arm926ejs/start.o
 .rel.text.strtok
                0x0000000080e36568        0x8 arch/arm/cpu/arm926ejs/start.o
 .rel.text.strmhz
                0x0000000080e36570        0x0 arch/arm/cpu/arm926ejs/start.o
 .rel.text.string.isra.0
                0x0000000080e36570        0x8 arch/arm/cpu/arm926ejs/start.o
 .rel.text.number.isra.4
                0x0000000080e36578        0x8 arch/arm/cpu/arm926ejs/start.o
 .rel.text.vsnprintf_internal.isra.6
                0x0000000080e36580       0x10 arch/arm/cpu/arm926ejs/start.o
 .rel.text.simple_strtoul
                0x0000000080e36590        0x8 arch/arm/cpu/arm926ejs/start.o
 .rel.text.simple_strtoull
                0x0000000080e36598        0x8 arch/arm/cpu/arm926ejs/start.o
 .rel.text.__assert_fail
                0x0000000080e365a0        0x0 arch/arm/cpu/arm926ejs/start.o
 .rel.text.simple_itoa
                0x0000000080e365a0        0x8 arch/arm/cpu/arm926ejs/start.o
 .rel.text.print_grouped_ull
                0x0000000080e365a8        0x0 arch/arm/cpu/arm926ejs/start.o
 .rel.rodata.compat_names
                0x0000000080e365a8      0x168 arch/arm/cpu/arm926ejs/start.o
 .rel.text.ArpInit
                0x0000000080e36710       0x30 arch/arm/cpu/arm926ejs/start.o
 .rel.text.arp_raw_request
                0x0000000080e36740       0x18 arch/arm/cpu/arm926ejs/start.o
 .rel.text.ArpRequest
                0x0000000080e36758       0x48 arch/arm/cpu/arm926ejs/start.o
 .rel.text.ArpTimeoutCheck
                0x0000000080e367a0       0x20 arch/arm/cpu/arm926ejs/start.o
 .rel.text.ArpReceive
                0x0000000080e367c0       0x40 arch/arm/cpu/arm926ejs/start.o
 .rel.text.BootpHandler
                0x0000000080e36800       0x90 arch/arm/cpu/arm926ejs/start.o
 .rel.text.BootpRequest
                0x0000000080e36890       0x48 arch/arm/cpu/arm926ejs/start.o
 .rel.text.BootpTimeout
                0x0000000080e368d8       0x18 arch/arm/cpu/arm926ejs/start.o
 .rel.text.eth_current_changed
                0x0000000080e368f0       0x10 arch/arm/cpu/arm926ejs/start.o
 .rel.text.eth_setenv_enetaddr
                0x0000000080e36900        0x8 arch/arm/cpu/arm926ejs/start.o
 .rel.text.eth_getenv_enetaddr_by_index
                0x0000000080e36908       0x10 arch/arm/cpu/arm926ejs/start.o
 .rel.text.eth_get_dev_by_name
                0x0000000080e36918        0x0 arch/arm/cpu/arm926ejs/start.o
 .rel.text.eth_get_dev_by_index
                0x0000000080e36918        0x0 arch/arm/cpu/arm926ejs/start.o
 .rel.text.eth_get_dev_index
                0x0000000080e36918        0x8 arch/arm/cpu/arm926ejs/start.o
 .rel.text.eth_write_hwaddr
                0x0000000080e36920       0x40 arch/arm/cpu/arm926ejs/start.o
 .rel.text.eth_register
                0x0000000080e36960       0x18 arch/arm/cpu/arm926ejs/start.o
 .rel.text.eth_unregister
                0x0000000080e36978        0x0 arch/arm/cpu/arm926ejs/start.o
 .rel.text.eth_initialize
                0x0000000080e36978       0x90 arch/arm/cpu/arm926ejs/start.o
 .rel.text.eth_halt
                0x0000000080e36a08        0x8 arch/arm/cpu/arm926ejs/start.o
 .rel.text.eth_send
                0x0000000080e36a10        0x8 arch/arm/cpu/arm926ejs/start.o
 .rel.text.eth_rx
                0x0000000080e36a18        0x8 arch/arm/cpu/arm926ejs/start.o
 .rel.text.eth_try_another
                0x0000000080e36a20       0x28 arch/arm/cpu/arm926ejs/start.o
 .rel.text.eth_init
                0x0000000080e36a48       0x28 arch/arm/cpu/arm926ejs/start.o
 .rel.text.eth_set_current
                0x0000000080e36a70       0x20 arch/arm/cpu/arm926ejs/start.o
 .rel.text.eth_get_name
                0x0000000080e36a90       0x10 arch/arm/cpu/arm926ejs/start.o
 .rel.text.startAgainTimeout
                0x0000000080e36aa0        0x8 arch/arm/cpu/arm926ejs/start.o
 .rel.text.net_clear_handlers
                0x0000000080e36aa8       0x20 arch/arm/cpu/arm926ejs/start.o
 .rel.text.net_auto_load
                0x0000000080e36ac8       0x10 arch/arm/cpu/arm926ejs/start.o
 .rel.text.NetStartAgain
                0x0000000080e36ad8       0x78 arch/arm/cpu/arm926ejs/start.o
 .rel.text.net_get_udp_handler
                0x0000000080e36b50        0x0 arch/arm/cpu/arm926ejs/start.o
 .rel.text.net_set_udp_handler
                0x0000000080e36b50       0x10 arch/arm/cpu/arm926ejs/start.o
 .rel.text.net_get_arp_handler
                0x0000000080e36b60        0x8 arch/arm/cpu/arm926ejs/start.o
 .rel.text.net_set_arp_handler
                0x0000000080e36b68        0x0 arch/arm/cpu/arm926ejs/start.o
 .rel.text.NetSetTimeout
                0x0000000080e36b68       0x18 arch/arm/cpu/arm926ejs/start.o
 .rel.text.NetReceive
                0x0000000080e36b80       0x38 arch/arm/cpu/arm926ejs/start.o
 .rel.text.NetEthHdrSize
                0x0000000080e36bb8        0x8 arch/arm/cpu/arm926ejs/start.o
 .rel.text.NetSetEther
                0x0000000080e36bc0       0x10 arch/arm/cpu/arm926ejs/start.o
 .rel.text.net_update_ether
                0x0000000080e36bd0        0x8 arch/arm/cpu/arm926ejs/start.o
 .rel.text.net_set_ip_header
                0x0000000080e36bd8        0x8 arch/arm/cpu/arm926ejs/start.o
 .rel.text.net_set_udp_header
                0x0000000080e36be0        0x8 arch/arm/cpu/arm926ejs/start.o
 .rel.text.NetSendUDPPacket
                0x0000000080e36be8       0x40 arch/arm/cpu/arm926ejs/start.o
 .rel.text.on_bootfile
                0x0000000080e36c28        0x8 arch/arm/cpu/arm926ejs/start.o
 .rel.text.ip_to_string
                0x0000000080e36c30        0x8 arch/arm/cpu/arm926ejs/start.o
 .rel.text.VLAN_to_string
                0x0000000080e36c38        0x0 arch/arm/cpu/arm926ejs/start.o
 .rel.text.NetInitLoop
                0x0000000080e36c38       0x78 arch/arm/cpu/arm926ejs/start.o
 .rel.text.net_init
                0x0000000080e36cb0       0x20 arch/arm/cpu/arm926ejs/start.o
 .rel.text.NetLoop
                0x0000000080e36cd0      0x148 arch/arm/cpu/arm926ejs/start.o
 .rel.text.ping_timeout
                0x0000000080e36e18        0x8 arch/arm/cpu/arm926ejs/start.o
 .rel.text.ping_start
                0x0000000080e36e20       0x58 arch/arm/cpu/arm926ejs/start.o
 .rel.text.ping_receive
                0x0000000080e36e78       0x18 arch/arm/cpu/arm926ejs/start.o
 .rel.text.TftpSend
                0x0000000080e36e90       0xb8 arch/arm/cpu/arm926ejs/start.o
 .rel.text.TftpHandler
                0x0000000080e36f48       0xc8 arch/arm/cpu/arm926ejs/start.o
 .rel.text.TftpTimeout
                0x0000000080e37010       0x40 arch/arm/cpu/arm926ejs/start.o
 .rel.text.TftpStart
                0x0000000080e37050      0x128 arch/arm/cpu/arm926ejs/start.o
 .rel.u_boot_list_2_env_clbk_2_bootfile
                0x0000000080e37178       0x10 arch/arm/cpu/arm926ejs/start.o
 .rel.text.flash_init
                0x0000000080e37188       0x18 arch/arm/cpu/arm926ejs/start.o
 .rel.text.flash_print_info
                0x0000000080e371a0        0x0 arch/arm/cpu/arm926ejs/start.o
 .rel.text.flash_erase
                0x0000000080e371a0        0x0 arch/arm/cpu/arm926ejs/start.o
 .rel.text.write_buff
                0x0000000080e371a0        0x8 arch/arm/cpu/arm926ejs/start.o
 .rel.text.spinand_flash_init
                0x0000000080e371a8        0x0 arch/arm/cpu/arm926ejs/start.o
 .rel.text.efuse_read
                0x0000000080e371a8        0x0 arch/arm/cpu/arm926ejs/start.o
 .rel.text.spl_device_parse
                0x0000000080e371a8       0x98 arch/arm/cpu/arm926ejs/start.o
 .rel.text.get_mtdparts_by_partition_name
                0x0000000080e37240       0x10 arch/arm/cpu/arm926ejs/start.o
 .rel.text.get_mtdparts_by_partition_flash_offset
                0x0000000080e37250       0x18 arch/arm/cpu/arm926ejs/start.o
 .rel.text.read_logo_data
                0x0000000080e37268       0x30 arch/arm/cpu/arm926ejs/start.o
 .rel.text.spl_fdt_next_tag
                0x0000000080e37298        0x0 arch/arm/cpu/arm926ejs/start.o
 .rel.text.spl_fdt_get_alias_namelen
                0x0000000080e37298        0x0 arch/arm/cpu/arm926ejs/start.o
 .rel.text.spl_fdt_setprop
                0x0000000080e37298        0x0 arch/arm/cpu/arm926ejs/start.o
 .rel.text.spl_fdt_chosen
                0x0000000080e37298        0x0 arch/arm/cpu/arm926ejs/start.o
 .rel.text.read_dtb_data
                0x0000000080e37298       0x30 arch/arm/cpu/arm926ejs/start.o
 .rel.text.raise
                0x0000000080e372c8        0x8 arch/arm/cpu/arm926ejs/start.o

.rel_dyn_end    0x0000000080e372d0        0x0
 *(.__rel_dyn_end)
 .__rel_dyn_end
                0x0000000080e372d0        0x0 arch/arm/lib/libarm.o
                0x0000000080e372d0                _end = .
                0x0000000080e38000                . = ALIGN (0x1000)

.mmutable
 *(.mmutable)

.bss_start      0x0000000080e317e8        0x0
 *(.__bss_start)
 .__bss_start   0x0000000080e317e8        0x0 arch/arm/lib/libarm.o
                0x0000000080e317e8                __bss_start
                0x0000000080e317e8                __bss_base = .

.bss            0x0000000080e317e8   0x2736a8
 *(.bss*)
 .bss.s_L2_DMA  0x0000000080e317e8      0x200 arch/arm/cpu/arm926ejs/ak37e/libak37e.o
 .bss.IRQ_HANDLER
                0x0000000080e319e8      0x100 arch/arm/cpu/arm926ejs/ak37e/libak37e.o
 .bss.part_num  0x0000000080e31ae8        0x4 arch/arm/lib/libarm.o
                0x0000000080e31ae8                part_num
 .bss.monitor_flash_len
                0x0000000080e31aec        0x4 arch/arm/lib/libarm.o
                0x0000000080e31aec                monitor_flash_len
 .bss.params    0x0000000080e31af0        0x4 arch/arm/lib/libarm.o
 .bss.images    0x0000000080e31af4      0x130 common/libcommon.o
                0x0000000080e31af4                images
 .bss.data.7126
                0x0000000080e31c24      0x400 common/libcommon.o
 .bss.working_fdt
                0x0000000080e32024        0x4 common/libcommon.o
                0x0000000080e32024                working_fdt
 .bss.send_parms
                0x0000000080e32028       0x14 common/libcommon.o
 .bss.os_data_addr_saved
                0x0000000080e3203c        0x4 common/libcommon.o
 .bss.his_pad_char
                0x0000000080e32040        0x1 common/libcommon.o
 .bss.a_b       0x0000000080e32041       0x18 common/libcommon.o
 *fill*         0x0000000080e32059        0x3 
 .bss.os_data_char
                0x0000000080e3205c        0x4 common/libcommon.o
 .bss.os_data_state
                0x0000000080e32060        0x4 common/libcommon.o
 .bss.k_data_escape
                0x0000000080e32064        0x4 common/libcommon.o
 .bss.os_data_state_saved
                0x0000000080e32068        0x4 common/libcommon.o
 .bss.os_data_addr
                0x0000000080e3206c        0x4 common/libcommon.o
 .bss.send_ptr  0x0000000080e32070        0x4 common/libcommon.o
 .bss.his_pad_count
                0x0000000080e32074        0x4 common/libcommon.o
 .bss.bin_start_address
                0x0000000080e32078        0x4 common/libcommon.o
 .bss.his_quote
                0x0000000080e3207c        0x1 common/libcommon.o
 *fill*         0x0000000080e3207d        0x3 
 .bss.os_data_init
                0x0000000080e32080        0x4 common/libcommon.o
 .bss.his_eol   0x0000000080e32084        0x1 common/libcommon.o
 *fill*         0x0000000080e32085        0x3 
 .bss.k_data_escape_saved
                0x0000000080e32088        0x4 common/libcommon.o
 .bss.dp_last_addr
                0x0000000080e3208c        0x4 common/libcommon.o
 .bss.base_address
                0x0000000080e32090        0x4 common/libcommon.o
 .bss.mm_last_size
                0x0000000080e32094        0x4 common/libcommon.o
 .bss.mm_last_addr
                0x0000000080e32098        0x4 common/libcommon.o
 .bss.dp_last_size
                0x0000000080e3209c        0x4 common/libcommon.o
 .bss.last_ids  0x0000000080e320a0       0x80 common/libcommon.o
 .bss.current_mtd_dev
                0x0000000080e32120        0x4 common/libcommon.o
                0x0000000080e32120                current_mtd_dev
 .bss.last_partition
                0x0000000080e32124       0x10 common/libcommon.o
 .bss.last_parts
                0x0000000080e32134      0x200 common/libcommon.o
 .bss.current_mtd_partnum
                0x0000000080e32334        0x1 common/libcommon.o
                0x0000000080e32334                current_mtd_partnum
 *fill*         0x0000000080e32335        0x3 
 .bss.mtdids    0x0000000080e32338        0x8 common/libcommon.o
 .bss.devices   0x0000000080e32340        0x8 common/libcommon.o
 .bss.initialized.7339
                0x0000000080e32348        0x4 common/libcommon.o
 .bss.upgrade_type
                0x0000000080e3234c        0x1 common/libcommon.o
 *fill*         0x0000000080e3234d        0x3 
 .bss.flash     0x0000000080e32350        0x4 common/libcommon.o
 .bss.tmp_buf   0x0000000080e32354      0x200 common/libcommon.o
 .bss.tmp_buf.6466
                0x0000000080e32554      0x200 common/libcommon.o
 .bss.ctrlc_was_pressed
                0x0000000080e32754        0x4 common/libcommon.o
 .bss.ctrlc_disabled
                0x0000000080e32758        0x4 common/libcommon.o
 .bss.max_total_mem
                0x0000000080e3275c        0x4 common/libcommon.o
 .bss.mem_malloc_brk
                0x0000000080e32760        0x4 common/libcommon.o
                0x0000000080e32760                mem_malloc_brk
 .bss.max_sbrked_mem
                0x0000000080e32764        0x4 common/libcommon.o
 .bss.current_mallinfo
                0x0000000080e32768       0x28 common/libcommon.o
 .bss.mem_malloc_end
                0x0000000080e32790        0x4 common/libcommon.o
                0x0000000080e32790                mem_malloc_end
 .bss.top_pad   0x0000000080e32794        0x4 common/libcommon.o
 .bss.mem_malloc_start
                0x0000000080e32798        0x4 common/libcommon.o
                0x0000000080e32798                mem_malloc_start
 .bss.env_flash
                0x0000000080e3279c        0x4 common/libcommon.o
                0x0000000080e3279c                env_flash
 .bss.console_col
                0x0000000080e327a0        0x2 common/libcommon.o
 *fill*         0x0000000080e327a2        0x2 
 .bss.lcd_base  0x0000000080e327a4        0x4 common/libcommon.o
 .bss.console_row
                0x0000000080e327a8        0x2 common/libcommon.o
 *fill*         0x0000000080e327aa        0x2 
 .bss.lcd_console_address
                0x0000000080e327ac        0x4 common/libcommon.o
 .bss.lcd_color_fg
                0x0000000080e327b0        0x4 common/libcommon.o
 .bss.lcd_line_length
                0x0000000080e327b4        0x4 common/libcommon.o
                0x0000000080e327b4                lcd_line_length
 .bss.lcd_color_bg
                0x0000000080e327b8        0x4 common/libcommon.o
 .bss.lcd_is_enabled
                0x0000000080e327bc        0x1 common/libcommon.o
                0x0000000080e327bc                lcd_is_enabled
 .bss.lcd_flush_dcache
                0x0000000080e327bd        0x1 common/libcommon.o
 *fill*         0x0000000080e327be        0x2 
 .bss.hist_list
                0x0000000080e327c0       0x50 common/libcommon.o
 .bss.hist_lines
                0x0000000080e32810     0x2814 common/libcommon.o
 .bss.hist_max  0x0000000080e35024        0x4 common/libcommon.o
 .bss.hist_add_idx
                0x0000000080e35028        0x4 common/libcommon.o
 .bss.lastcommand.7240
                0x0000000080e3502c      0x200 common/libcommon.o
 .bss.initted.7375
                0x0000000080e3522c        0x4 common/libcommon.o
 .bss.hist_num  0x0000000080e35230        0x4 common/libcommon.o
 .bss.console_buffer
                0x0000000080e35234      0x201 common/libcommon.o
                0x0000000080e35234                console_buffer
 *fill*         0x0000000080e35435        0x3 
 .bss.devs      0x0000000080e35438       0x3c common/libcommon.o
 .bss.stdio_devices
                0x0000000080e35474        0xc common/libcommon.o
                0x0000000080e35474                stdio_devices
 .bss.xyz       0x0000000080e35480      0x434 common/libcommon.o
 .bss.mmc_devices
                0x0000000080e358b4        0x8 drivers/mmc/libmmc.o
 *fill*         0x0000000080e358bc        0x4 
 .bss.sdhsmmc_dev
                0x0000000080e358c0      0x450 drivers/mmc/libmmc.o
 .bss.g_power_on_pin
                0x0000000080e35d10        0x4 drivers/mmc/libmmc.o
                0x0000000080e35d10                g_power_on_pin
 .bss.sdhsmmc_dev_data
                0x0000000080e35d14       0x30 drivers/mmc/libmmc.o
 .bss.mtd_table
                0x0000000080e35d44       0x80 drivers/mtd/libmtd.o
                0x0000000080e35d44                mtd_table
 .bss.flash_QE_flag
                0x0000000080e35dc4        0x4 drivers/mtd/spi/libspi_flash.o
 .bss.sflash_mtd
                0x0000000080e35dc8       0xb0 drivers/mtd/spi/libspi_flash.o
                0x0000000080e35dc8                sflash_mtd
 .bss.RingbufVa
                0x0000000080e35e78        0x8 drivers/net/libnet.o
                0x0000000080e35e78                RingbufVa
 .bss.l2_uartbuffer_offset
                0x0000000080e35e80        0x4 drivers/serial/libserial.o
 .bss.serial_devices
                0x0000000080e35e84        0x4 drivers/serial/libserial.o
 .bss.serial_current
                0x0000000080e35e88        0x4 drivers/serial/libserial.o
 .bss.fb_dev    0x0000000080e35e8c        0x4 drivers/video/libvideo.o
                0x0000000080e35e8c                fb_dev
 *fill*         0x0000000080e35e90       0x30 
 .bss.do_fat_read_at_block
                0x0000000080e35ec0    0x10000 fs/fat/libfat.o
                0x0000000080e35ec0                do_fat_read_at_block
 .bss.get_dentfromdir_block
                0x0000000080e45ec0    0x10000 fs/fat/libfat.o
                0x0000000080e45ec0                get_dentfromdir_block
 .bss.cur_part_info
                0x0000000080e55ec0       0x50 fs/fat/libfat.o
 *fill*         0x0000000080e55f10       0x30 
 .bss.get_contents_vfatname_block
                0x0000000080e55f40    0x10000 fs/fat/libfat.o
                0x0000000080e55f40                get_contents_vfatname_block
 .bss.cur_dev   0x0000000080e65f40        0x4 fs/fat/libfat.o
 .bss.fs_partition
                0x0000000080e65f44       0x50 fs/libfs.o
 .bss.fs_type   0x0000000080e65f94        0x4 fs/libfs.o
 .bss.fs_dev_desc
                0x0000000080e65f98        0x4 fs/libfs.o
 .bss.errno     0x0000000080e65f9c        0x4 lib/libgeneric.o
                0x0000000080e65f9c                errno
 .bss.___strtok
                0x0000000080e65fa0        0x4 lib/libgeneric.o
                0x0000000080e65fa0                ___strtok
 .bss.local.6686
                0x0000000080e65fa4       0x16 lib/libgeneric.o
 *fill*         0x0000000080e65fba        0x2 
 .bss.NetArpWaitPacketIP
                0x0000000080e65fbc        0x4 net/libnet.o
                0x0000000080e65fbc                NetArpWaitPacketIP
 .bss.NetArpWaitTimerStart
                0x0000000080e65fc0        0x4 net/libnet.o
                0x0000000080e65fc0                NetArpWaitTimerStart
 .bss.NetArpWaitReplyIP
                0x0000000080e65fc4        0x4 net/libnet.o
 .bss.NetArpWaitTxPacketSize
                0x0000000080e65fc8        0x4 net/libnet.o
                0x0000000080e65fc8                NetArpWaitTxPacketSize
 .bss.NetArpWaitTry
                0x0000000080e65fcc        0x4 net/libnet.o
                0x0000000080e65fcc                NetArpWaitTry
 .bss.NetArpTxPacket
                0x0000000080e65fd0        0x4 net/libnet.o
 .bss.NetArpPacketBuf
                0x0000000080e65fd4      0x640 net/libnet.o
 .bss.NetArpWaitPacketMAC
                0x0000000080e66614        0x4 net/libnet.o
                0x0000000080e66614                NetArpWaitPacketMAC
 .bss.BootpTry  0x0000000080e66618        0x4 net/libnet.o
                0x0000000080e66618                BootpTry
 .bss.BootpID   0x0000000080e6661c        0x4 net/libnet.o
                0x0000000080e6661c                BootpID
 .bss.first_failed.7075
                0x0000000080e66620        0x4 net/libnet.o
 .bss.index.7028
                0x0000000080e66624        0x4 net/libnet.o
 .bss.eth_current
                0x0000000080e66628        0x4 net/libnet.o
                0x0000000080e66628                eth_current
 .bss.env_changed_id.7081
                0x0000000080e6662c        0x4 net/libnet.o
 .bss.act.7080  0x0000000080e66630        0x4 net/libnet.o
 .bss.eth_devices
                0x0000000080e66634        0x4 net/libnet.o
 .bss.NetOurEther
                0x0000000080e66638        0x6 net/libnet.o
                0x0000000080e66638                NetOurEther
 *fill*         0x0000000080e6663e        0x2 
 .bss.NetServerIP
                0x0000000080e66640        0x4 net/libnet.o
                0x0000000080e66640                NetServerIP
 .bss.NetRestarted
                0x0000000080e66644        0x4 net/libnet.o
 .bss.net_state
                0x0000000080e66648        0x4 net/libnet.o
                0x0000000080e66648                net_state
 .bss.NetRxPackets
                0x0000000080e6664c     0x1770 net/libnet.o
                0x0000000080e6664c                NetRxPackets
 .bss.NetBootFileSize
                0x0000000080e67dbc        0x2 net/libnet.o
                0x0000000080e67dbc                NetBootFileSize
 .bss.NetEtherNullAddr
                0x0000000080e67dbe        0x6 net/libnet.o
                0x0000000080e67dbe                NetEtherNullAddr
 .bss.NetRxPacket
                0x0000000080e67dc4        0x4 net/libnet.o
                0x0000000080e67dc4                NetRxPacket
 .bss.udp_packet_handler
                0x0000000080e67dc8        0x4 net/libnet.o
 .bss.NetDevExists
                0x0000000080e67dcc        0x4 net/libnet.o
 .bss.timeStart
                0x0000000080e67dd0        0x4 net/libnet.o
 .bss.timeHandler
                0x0000000080e67dd4        0x4 net/libnet.o
 .bss.NetTryCount
                0x0000000080e67dd8        0x4 net/libnet.o
 .bss.env_changed_id.6674
                0x0000000080e67ddc        0x4 net/libnet.o
 .bss.NetOurDNSIP
                0x0000000080e67de0        0x4 net/libnet.o
                0x0000000080e67de0                NetOurDNSIP
 .bss.NetOurSubnetMask
                0x0000000080e67de4        0x4 net/libnet.o
                0x0000000080e67de4                NetOurSubnetMask
 .bss.NetTxPacket
                0x0000000080e67de8        0x4 net/libnet.o
                0x0000000080e67de8                NetTxPacket
 .bss.NetBootFileXferSize
                0x0000000080e67dec        0x4 net/libnet.o
                0x0000000080e67dec                NetBootFileXferSize
 .bss.NetOurIP  0x0000000080e67df0        0x4 net/libnet.o
                0x0000000080e67df0                NetOurIP
 .bss.NetOurHostName
                0x0000000080e67df4       0x20 net/libnet.o
                0x0000000080e67df4                NetOurHostName
 .bss.NetOurNISDomain
                0x0000000080e67e14       0x20 net/libnet.o
                0x0000000080e67e14                NetOurNISDomain
 .bss.NetIPID   0x0000000080e67e34        0x4 net/libnet.o
                0x0000000080e67e34                NetIPID
 .bss.NetOurGatewayIP
                0x0000000080e67e38        0x4 net/libnet.o
                0x0000000080e67e38                NetOurGatewayIP
 .bss.arp_packet_handler
                0x0000000080e67e3c        0x4 net/libnet.o
 .bss.timeDelta
                0x0000000080e67e40        0x4 net/libnet.o
 .bss.NetRestartWrap
                0x0000000080e67e44        0x4 net/libnet.o
                0x0000000080e67e44                NetRestartWrap
 .bss.NetRxPacketLen
                0x0000000080e67e48        0x4 net/libnet.o
                0x0000000080e67e48                NetRxPacketLen
 .bss.BootFile  0x0000000080e67e4c       0x80 net/libnet.o
                0x0000000080e67e4c                BootFile
 .bss.NetServerEther
                0x0000000080e67ecc        0x6 net/libnet.o
                0x0000000080e67ecc                NetServerEther
 .bss.PktBuf    0x0000000080e67ed2   0x232e40 net/libnet.o
 .bss.NetOurRootPath
                0x000000008109ad12       0x40 net/libnet.o
                0x000000008109ad12                NetOurRootPath
 *fill*         0x000000008109ad52        0x2 
 .bss.NetPingIP
                0x000000008109ad54        0x4 net/libnet.o
                0x000000008109ad54                NetPingIP
 .bss.PingSeqNo
                0x000000008109ad58        0x2 net/libnet.o
 *fill*         0x000000008109ad5a        0x2 
 .bss.time_start
                0x000000008109ad5c        0x4 net/libnet.o
 .bss.TftpTimeoutCount
                0x000000008109ad60        0x4 net/libnet.o
 .bss.TftpBlockWrap
                0x000000008109ad64        0x4 net/libnet.o
 .bss.TftpBlock
                0x000000008109ad68        0x4 net/libnet.o
 .bss.TftpOurPort
                0x000000008109ad6c        0x4 net/libnet.o
 .bss.TftpRemoteIP
                0x000000008109ad70        0x4 net/libnet.o
 .bss.TftpState
                0x000000008109ad74        0x4 net/libnet.o
 .bss.TftpRemotePort
                0x000000008109ad78        0x4 net/libnet.o
 .bss.default_filename
                0x000000008109ad7c        0xd net/libnet.o
 .bss.tftp_filename
                0x000000008109ad89       0x80 net/libnet.o
 *fill*         0x000000008109ae09        0x3 
 .bss.TftpBlockWrapOffset
                0x000000008109ae0c        0x4 net/libnet.o
 .bss.TftpLastBlock
                0x000000008109ae10        0x4 net/libnet.o
 .bss.spl_mtdparts
                0x000000008109ae14       0x50 board/anyka/anycloud_ak37e/libanycloud_ak37e.o
                0x000000008109ae14                spl_mtdparts
 .bss.flash_info
                0x000000008109ae64     0xa02c board/anyka/anycloud_ak37e/libanycloud_ak37e.o
                0x000000008109ae64                flash_info
                0x00000000810a4e90                . = ALIGN (0x4)
                0x00000000810a4e90                __bss_limit = .

.dynbss         0x0000000080e317e8        0x0 load address 0x00000000810a4e90
 .dynbss        0x0000000080e317e8        0x0 arch/arm/cpu/arm926ejs/start.o

.bss_end        0x00000000810a4e90        0x0
 *(.__bss_end)
 .__bss_end     0x00000000810a4e90        0x0 arch/arm/lib/libarm.o
                0x00000000810a4e90                __bss_end

/DISCARD/
 *(.dynsym)
 *(.dynstr*)
 *(.dynamic*)
 *(.plt*)
 *(.interp*)
 *(.gnu*)
 *(.ARM.exidx*)
 *(.gnu.linkonce.armexidx.*)
Address of section .text set to 0x80dffe00
LOAD arch/arm/cpu/arm926ejs/start.o
START GROUP
LOAD api/libapi.o
LOAD arch/arm/cpu/arm926ejs/ak37e/libak37e.o
LOAD arch/arm/cpu/arm926ejs/libarm926ejs.o
LOAD arch/arm/lib/libarm.o
LOAD common/libcommon.o
LOAD disk/libdisk.o
LOAD drivers/bios_emulator/libatibiosemu.o
LOAD drivers/block/libblock.o
LOAD drivers/crypto/libcrypto.o
LOAD drivers/dfu/libdfu.o
LOAD drivers/dma/libdma.o
LOAD drivers/fpga/libfpga.o
LOAD drivers/gpio/libgpio.o
LOAD drivers/hwmon/libhwmon.o
LOAD drivers/i2c/libi2c.o
LOAD drivers/input/libinput.o
LOAD drivers/misc/libmisc.o
LOAD drivers/mmc/libmmc.o
LOAD drivers/mtd/libmtd.o
LOAD drivers/mtd/nand/libnand.o
LOAD drivers/mtd/onenand/libonenand.o
LOAD drivers/mtd/spi/libspi_flash.o
LOAD drivers/mtd/ubi/libubi.o
LOAD drivers/net/libnet.o
LOAD drivers/net/phy/libphy.o
LOAD drivers/pci/libpci.o
LOAD drivers/pcmcia/libpcmcia.o
LOAD drivers/power/battery/libbattery.o
LOAD drivers/power/fuel_gauge/libfuel_gauge.o
LOAD drivers/power/libpower.o
LOAD drivers/power/mfd/libmfd.o
LOAD drivers/power/pmic/libpmic.o
LOAD drivers/rtc/librtc.o
LOAD drivers/serial/libserial.o
LOAD drivers/sound/libsound.o
LOAD drivers/spi/libspi.o
LOAD drivers/tpm/libtpm.o
LOAD drivers/twserial/libtws.o
LOAD drivers/usb/eth/libusb_eth.o
LOAD drivers/usb/gadget/libusb_gadget.o
LOAD drivers/usb/host/libusb_host.o
LOAD drivers/usb/musb-new/libusb_musb-new.o
LOAD drivers/usb/musb/libusb_musb.o
LOAD drivers/usb/phy/libusb_phy.o
LOAD drivers/usb/ulpi/libusb_ulpi.o
LOAD drivers/video/libvideo.o
LOAD drivers/watchdog/libwatchdog.o
LOAD fs/cbfs/libcbfs.o
LOAD fs/cramfs/libcramfs.o
LOAD fs/ext4/libext4fs.o
LOAD fs/fat/libfat.o
LOAD fs/fdos/libfdos.o
LOAD fs/jffs2/libjffs2.o
LOAD fs/libfs.o
LOAD fs/reiserfs/libreiserfs.o
LOAD fs/sandbox/libsandboxfs.o
LOAD fs/ubifs/libubifs.o
LOAD fs/yaffs2/libyaffs2.o
LOAD fs/zfs/libzfs.o
LOAD lib/libfdt/libfdt.o
LOAD lib/libgeneric.o
LOAD lib/lzma/liblzma.o
LOAD lib/lzo/liblzo.o
LOAD lib/rsa/librsa.o
LOAD lib/zlib/libz.o
LOAD net/libnet.o
LOAD post/libpost.o
LOAD test/libtest.o
LOAD board/anyka/anycloud_ak37e/libanycloud_ak37e.o
END GROUP
LOAD /home/leo/workspace/ruian_2wire/common/AK37E_SDK_V1.05_new/os/uboot/arch/arm/lib/eabi_compat.o
LOAD /opt/arm-anykav500-linux-uclibcgnueabi/bin/../lib/gcc/arm-anykav500-linux-uclibcgnueabi/4.9.4/libgcc.a
OUTPUT(u-boot elf32-littlearm)

.ARM.attributes
                0x0000000000000000       0x2e
 .ARM.attributes
                0x0000000000000000       0x1b arch/arm/cpu/arm926ejs/start.o
 .ARM.attributes
                0x000000000000001b       0x29 arch/arm/cpu/arm926ejs/ak37e/libak37e.o
 .ARM.attributes
                0x0000000000000044       0x2b arch/arm/cpu/arm926ejs/libarm926ejs.o
 .ARM.attributes
                0x000000000000006f       0x27 arch/arm/lib/libarm.o
 .ARM.attributes
                0x0000000000000096       0x2b common/libcommon.o
 .ARM.attributes
                0x00000000000000c1       0x2b disk/libdisk.o
 .ARM.attributes
                0x00000000000000ec       0x2b drivers/gpio/libgpio.o
 .ARM.attributes
                0x0000000000000117       0x2b drivers/mmc/libmmc.o
 .ARM.attributes
                0x0000000000000142       0x2b drivers/mtd/libmtd.o
 .ARM.attributes
                0x000000000000016d       0x2b drivers/mtd/spi/libspi_flash.o
 .ARM.attributes
                0x0000000000000198       0x2b drivers/net/libnet.o
 .ARM.attributes
                0x00000000000001c3       0x2b drivers/serial/libserial.o
 .ARM.attributes
                0x00000000000001ee       0x2b drivers/spi/libspi.o
 .ARM.attributes
                0x0000000000000219       0x2b drivers/video/libvideo.o
 .ARM.attributes
                0x0000000000000244       0x2b drivers/watchdog/libwatchdog.o
 .ARM.attributes
                0x000000000000026f       0x2b fs/fat/libfat.o
 .ARM.attributes
                0x000000000000029a       0x2b fs/libfs.o
 .ARM.attributes
                0x00000000000002c5       0x2b lib/libfdt/libfdt.o
 .ARM.attributes
                0x00000000000002f0       0x2b lib/libgeneric.o
 .ARM.attributes
                0x000000000000031b       0x2b net/libnet.o
 .ARM.attributes
                0x0000000000000346       0x29 board/anyka/anycloud_ak37e/libanycloud_ak37e.o
 .ARM.attributes
                0x000000000000036f       0x2b /home/leo/workspace/ruian_2wire/common/AK37E_SDK_V1.05_new/os/uboot/arch/arm/lib/eabi_compat.o
 .ARM.attributes
                0x000000000000039a       0x24 /opt/arm-anykav500-linux-uclibcgnueabi/bin/../lib/gcc/arm-anykav500-linux-uclibcgnueabi/4.9.4/libgcc.a(_udivsi3.o)
 .ARM.attributes
                0x00000000000003be       0x24 /opt/arm-anykav500-linux-uclibcgnueabi/bin/../lib/gcc/arm-anykav500-linux-uclibcgnueabi/4.9.4/libgcc.a(_divsi3.o)
 .ARM.attributes
                0x00000000000003e2       0x24 /opt/arm-anykav500-linux-uclibcgnueabi/bin/../lib/gcc/arm-anykav500-linux-uclibcgnueabi/4.9.4/libgcc.a(_lshrdi3.o)
 .ARM.attributes
                0x0000000000000406       0x24 /opt/arm-anykav500-linux-uclibcgnueabi/bin/../lib/gcc/arm-anykav500-linux-uclibcgnueabi/4.9.4/libgcc.a(_ashldi3.o)
 .ARM.attributes
                0x000000000000042a       0x24 /opt/arm-anykav500-linux-uclibcgnueabi/bin/../lib/gcc/arm-anykav500-linux-uclibcgnueabi/4.9.4/libgcc.a(_aeabi_uldivmod.o)
 .ARM.attributes
                0x000000000000044e       0x24 /opt/arm-anykav500-linux-uclibcgnueabi/bin/../lib/gcc/arm-anykav500-linux-uclibcgnueabi/4.9.4/libgcc.a(_dvmd_lnx.o)
 .ARM.attributes
                0x0000000000000472       0x32 /opt/arm-anykav500-linux-uclibcgnueabi/bin/../lib/gcc/arm-anykav500-linux-uclibcgnueabi/4.9.4/libgcc.a(bpabi.o)
 .ARM.attributes
                0x00000000000004a4       0x32 /opt/arm-anykav500-linux-uclibcgnueabi/bin/../lib/gcc/arm-anykav500-linux-uclibcgnueabi/4.9.4/libgcc.a(_divdi3.o)
 .ARM.attributes
                0x00000000000004d6       0x32 /opt/arm-anykav500-linux-uclibcgnueabi/bin/../lib/gcc/arm-anykav500-linux-uclibcgnueabi/4.9.4/libgcc.a(_udivdi3.o)

.comment        0x0000000000000000       0x32
 .comment       0x0000000000000000       0x32 arch/arm/cpu/arm926ejs/ak37e/libak37e.o
                                        0x198 (size before relaxing)
 .comment       0x0000000000000032       0x66 arch/arm/cpu/arm926ejs/libarm926ejs.o
 .comment       0x0000000000000032      0x198 arch/arm/lib/libarm.o
 .comment       0x0000000000000032      0x7c5 common/libcommon.o
 .comment       0x0000000000000032       0x66 disk/libdisk.o
 .comment       0x0000000000000032       0x33 drivers/gpio/libgpio.o
 .comment       0x0000000000000032       0x99 drivers/mmc/libmmc.o
 .comment       0x0000000000000032       0x66 drivers/mtd/libmtd.o
 .comment       0x0000000000000032       0xcc drivers/mtd/spi/libspi_flash.o
 .comment       0x0000000000000032       0x33 drivers/net/libnet.o
 .comment       0x0000000000000032       0x66 drivers/serial/libserial.o
 .comment       0x0000000000000032       0x66 drivers/spi/libspi.o
 .comment       0x0000000000000032       0x33 drivers/video/libvideo.o
 .comment       0x0000000000000032       0x33 drivers/watchdog/libwatchdog.o
 .comment       0x0000000000000032       0x66 fs/fat/libfat.o
 .comment       0x0000000000000032       0x33 fs/libfs.o
 .comment       0x0000000000000032      0x165 lib/libfdt/libfdt.o
 .comment       0x0000000000000032      0x3fc lib/libgeneric.o
 .comment       0x0000000000000032      0x132 net/libnet.o
 .comment       0x0000000000000032       0x66 board/anyka/anycloud_ak37e/libanycloud_ak37e.o
 .comment       0x0000000000000032       0x33 /home/leo/workspace/ruian_2wire/common/AK37E_SDK_V1.05_new/os/uboot/arch/arm/lib/eabi_compat.o
 .comment       0x0000000000000032       0x33 /opt/arm-anykav500-linux-uclibcgnueabi/bin/../lib/gcc/arm-anykav500-linux-uclibcgnueabi/4.9.4/libgcc.a(bpabi.o)
 .comment       0x0000000000000032       0x33 /opt/arm-anykav500-linux-uclibcgnueabi/bin/../lib/gcc/arm-anykav500-linux-uclibcgnueabi/4.9.4/libgcc.a(_divdi3.o)
 .comment       0x0000000000000032       0x33 /opt/arm-anykav500-linux-uclibcgnueabi/bin/../lib/gcc/arm-anykav500-linux-uclibcgnueabi/4.9.4/libgcc.a(_udivdi3.o)

.note.GNU-stack
                0x0000000000000000        0x0
 .note.GNU-stack
                0x0000000000000000        0x0 arch/arm/cpu/arm926ejs/ak37e/libak37e.o
 .note.GNU-stack
                0x0000000000000000        0x0 arch/arm/cpu/arm926ejs/libarm926ejs.o
 .note.GNU-stack
                0x0000000000000000        0x0 arch/arm/lib/libarm.o
 .note.GNU-stack
                0x0000000000000000        0x0 common/libcommon.o
 .note.GNU-stack
                0x0000000000000000        0x0 disk/libdisk.o
 .note.GNU-stack
                0x0000000000000000        0x0 drivers/gpio/libgpio.o
 .note.GNU-stack
                0x0000000000000000        0x0 drivers/mmc/libmmc.o
 .note.GNU-stack
                0x0000000000000000        0x0 drivers/mtd/libmtd.o
 .note.GNU-stack
                0x0000000000000000        0x0 drivers/mtd/spi/libspi_flash.o
 .note.GNU-stack
                0x0000000000000000        0x0 drivers/net/libnet.o
 .note.GNU-stack
                0x0000000000000000        0x0 drivers/serial/libserial.o
 .note.GNU-stack
                0x0000000000000000        0x0 drivers/spi/libspi.o
 .note.GNU-stack
                0x0000000000000000        0x0 drivers/video/libvideo.o
 .note.GNU-stack
                0x0000000000000000        0x0 drivers/watchdog/libwatchdog.o
 .note.GNU-stack
                0x0000000000000000        0x0 fs/fat/libfat.o
 .note.GNU-stack
                0x0000000000000000        0x0 fs/libfs.o
 .note.GNU-stack
                0x0000000000000000        0x0 lib/libfdt/libfdt.o
 .note.GNU-stack
                0x0000000000000000        0x0 lib/libgeneric.o
 .note.GNU-stack
                0x0000000000000000        0x0 net/libnet.o
 .note.GNU-stack
                0x0000000000000000        0x0 board/anyka/anycloud_ak37e/libanycloud_ak37e.o
 .note.GNU-stack
                0x0000000000000000        0x0 /home/leo/workspace/ruian_2wire/common/AK37E_SDK_V1.05_new/os/uboot/arch/arm/lib/eabi_compat.o
 .note.GNU-stack
                0x0000000000000000        0x0 /opt/arm-anykav500-linux-uclibcgnueabi/bin/../lib/gcc/arm-anykav500-linux-uclibcgnueabi/4.9.4/libgcc.a(_udivsi3.o)
 .note.GNU-stack
                0x0000000000000000        0x0 /opt/arm-anykav500-linux-uclibcgnueabi/bin/../lib/gcc/arm-anykav500-linux-uclibcgnueabi/4.9.4/libgcc.a(_divsi3.o)
 .note.GNU-stack
                0x0000000000000000        0x0 /opt/arm-anykav500-linux-uclibcgnueabi/bin/../lib/gcc/arm-anykav500-linux-uclibcgnueabi/4.9.4/libgcc.a(_lshrdi3.o)
 .note.GNU-stack
                0x0000000000000000        0x0 /opt/arm-anykav500-linux-uclibcgnueabi/bin/../lib/gcc/arm-anykav500-linux-uclibcgnueabi/4.9.4/libgcc.a(_ashldi3.o)
 .note.GNU-stack
                0x0000000000000000        0x0 /opt/arm-anykav500-linux-uclibcgnueabi/bin/../lib/gcc/arm-anykav500-linux-uclibcgnueabi/4.9.4/libgcc.a(_aeabi_uldivmod.o)
 .note.GNU-stack
                0x0000000000000000        0x0 /opt/arm-anykav500-linux-uclibcgnueabi/bin/../lib/gcc/arm-anykav500-linux-uclibcgnueabi/4.9.4/libgcc.a(_dvmd_lnx.o)
 .note.GNU-stack
                0x0000000000000000        0x0 /opt/arm-anykav500-linux-uclibcgnueabi/bin/../lib/gcc/arm-anykav500-linux-uclibcgnueabi/4.9.4/libgcc.a(bpabi.o)
 .note.GNU-stack
                0x0000000000000000        0x0 /opt/arm-anykav500-linux-uclibcgnueabi/bin/../lib/gcc/arm-anykav500-linux-uclibcgnueabi/4.9.4/libgcc.a(_divdi3.o)
 .note.GNU-stack
                0x0000000000000000        0x0 /opt/arm-anykav500-linux-uclibcgnueabi/bin/../lib/gcc/arm-anykav500-linux-uclibcgnueabi/4.9.4/libgcc.a(_udivdi3.o)

.debug_line     0x0000000000000000    0x195ab
 .debug_line    0x0000000000000000       0xa1 arch/arm/cpu/arm926ejs/start.o
 .debug_line    0x00000000000000a1      0xff3 arch/arm/cpu/arm926ejs/ak37e/libak37e.o
 .debug_line    0x0000000000001094      0x30c arch/arm/cpu/arm926ejs/libarm926ejs.o
 .debug_line    0x00000000000013a0     0x143f arch/arm/lib/libarm.o
 .debug_line    0x00000000000027df     0x92a4 common/libcommon.o
 .debug_line    0x000000000000ba83      0x756 disk/libdisk.o
 .debug_line    0x000000000000c1d9      0x364 drivers/gpio/libgpio.o
 .debug_line    0x000000000000c53d     0x1126 drivers/mmc/libmmc.o
 .debug_line    0x000000000000d663      0xa73 drivers/mtd/libmtd.o
 .debug_line    0x000000000000e0d6     0x1453 drivers/mtd/spi/libspi_flash.o
 .debug_line    0x000000000000f529      0x8a5 drivers/net/libnet.o
 .debug_line    0x000000000000fdce      0x79b drivers/serial/libserial.o
 .debug_line    0x0000000000010569      0x6c0 drivers/spi/libspi.o
 .debug_line    0x0000000000010c29      0x884 drivers/video/libvideo.o
 .debug_line    0x00000000000114ad      0x172 drivers/watchdog/libwatchdog.o
 .debug_line    0x000000000001161f      0x91d fs/fat/libfat.o
 .debug_line    0x0000000000011f3c      0x3ac fs/libfs.o
 .debug_line    0x00000000000122e8     0x17a8 lib/libfdt/libfdt.o
 .debug_line    0x0000000000013a90     0x2ee4 lib/libgeneric.o
 .debug_line    0x0000000000016974     0x1a32 net/libnet.o
 .debug_line    0x00000000000183a6      0xcb9 board/anyka/anycloud_ak37e/libanycloud_ak37e.o
 .debug_line    0x000000000001905f      0x177 /home/leo/workspace/ruian_2wire/common/AK37E_SDK_V1.05_new/os/uboot/arch/arm/lib/eabi_compat.o
 .debug_line    0x00000000000191d6       0x73 /opt/arm-anykav500-linux-uclibcgnueabi/bin/../lib/gcc/arm-anykav500-linux-uclibcgnueabi/4.9.4/libgcc.a(_udivsi3.o)
 .debug_line    0x0000000000019249       0x7f /opt/arm-anykav500-linux-uclibcgnueabi/bin/../lib/gcc/arm-anykav500-linux-uclibcgnueabi/4.9.4/libgcc.a(_divsi3.o)
 .debug_line    0x00000000000192c8       0x5d /opt/arm-anykav500-linux-uclibcgnueabi/bin/../lib/gcc/arm-anykav500-linux-uclibcgnueabi/4.9.4/libgcc.a(_lshrdi3.o)
 .debug_line    0x0000000000019325       0x5d /opt/arm-anykav500-linux-uclibcgnueabi/bin/../lib/gcc/arm-anykav500-linux-uclibcgnueabi/4.9.4/libgcc.a(_ashldi3.o)
 .debug_line    0x0000000000019382       0x5a /opt/arm-anykav500-linux-uclibcgnueabi/bin/../lib/gcc/arm-anykav500-linux-uclibcgnueabi/4.9.4/libgcc.a(_aeabi_uldivmod.o)
 .debug_line    0x00000000000193dc       0x5a /opt/arm-anykav500-linux-uclibcgnueabi/bin/../lib/gcc/arm-anykav500-linux-uclibcgnueabi/4.9.4/libgcc.a(_dvmd_lnx.o)
 .debug_line    0x0000000000019436       0x5b /opt/arm-anykav500-linux-uclibcgnueabi/bin/../lib/gcc/arm-anykav500-linux-uclibcgnueabi/4.9.4/libgcc.a(bpabi.o)
 .debug_line    0x0000000000019491       0x94 /opt/arm-anykav500-linux-uclibcgnueabi/bin/../lib/gcc/arm-anykav500-linux-uclibcgnueabi/4.9.4/libgcc.a(_divdi3.o)
 .debug_line    0x0000000000019525       0x86 /opt/arm-anykav500-linux-uclibcgnueabi/bin/../lib/gcc/arm-anykav500-linux-uclibcgnueabi/4.9.4/libgcc.a(_udivdi3.o)

.debug_info     0x0000000000000000    0x7616a
 .debug_info    0x0000000000000000       0x26 arch/arm/cpu/arm926ejs/start.o
 .debug_info    0x0000000000000026     0x28cd arch/arm/cpu/arm926ejs/ak37e/libak37e.o
 .debug_info    0x00000000000028f3      0x75a arch/arm/cpu/arm926ejs/libarm926ejs.o
 .debug_info    0x000000000000304d     0x4599 arch/arm/lib/libarm.o
 .debug_info    0x00000000000075e6    0x2e7a1 common/libcommon.o
 .debug_info    0x0000000000035d87     0x2080 disk/libdisk.o
 .debug_info    0x0000000000037e07      0xaa8 drivers/gpio/libgpio.o
 .debug_info    0x00000000000388af     0x5830 drivers/mmc/libmmc.o
 .debug_info    0x000000000003e0df     0x2e5a drivers/mtd/libmtd.o
 .debug_info    0x0000000000040f39     0x77bd drivers/mtd/spi/libspi_flash.o
 .debug_info    0x00000000000486f6     0x6ed9 drivers/net/libnet.o
 .debug_info    0x000000000004f5cf     0x1b42 drivers/serial/libserial.o
 .debug_info    0x0000000000051111     0x2133 drivers/spi/libspi.o
 .debug_info    0x0000000000053244     0x3af0 drivers/video/libvideo.o
 .debug_info    0x0000000000056d34      0x32d drivers/watchdog/libwatchdog.o
 .debug_info    0x0000000000057061     0x29f4 fs/fat/libfat.o
 .debug_info    0x0000000000059a55     0x131f fs/libfs.o
 .debug_info    0x000000000005ad74     0x606a lib/libfdt/libfdt.o
 .debug_info    0x0000000000060dde     0x9009 lib/libgeneric.o
 .debug_info    0x0000000000069de7     0x7d60 net/libnet.o
 .debug_info    0x0000000000071b47     0x3c94 board/anyka/anycloud_ak37e/libanycloud_ak37e.o
 .debug_info    0x00000000000757db      0x30c /home/leo/workspace/ruian_2wire/common/AK37E_SDK_V1.05_new/os/uboot/arch/arm/lib/eabi_compat.o
 .debug_info    0x0000000000075ae7       0x26 /opt/arm-anykav500-linux-uclibcgnueabi/bin/../lib/gcc/arm-anykav500-linux-uclibcgnueabi/4.9.4/libgcc.a(_udivsi3.o)
 .debug_info    0x0000000000075b0d       0x26 /opt/arm-anykav500-linux-uclibcgnueabi/bin/../lib/gcc/arm-anykav500-linux-uclibcgnueabi/4.9.4/libgcc.a(_divsi3.o)
 .debug_info    0x0000000000075b33       0x26 /opt/arm-anykav500-linux-uclibcgnueabi/bin/../lib/gcc/arm-anykav500-linux-uclibcgnueabi/4.9.4/libgcc.a(_lshrdi3.o)
 .debug_info    0x0000000000075b59       0x26 /opt/arm-anykav500-linux-uclibcgnueabi/bin/../lib/gcc/arm-anykav500-linux-uclibcgnueabi/4.9.4/libgcc.a(_ashldi3.o)
 .debug_info    0x0000000000075b7f       0x26 /opt/arm-anykav500-linux-uclibcgnueabi/bin/../lib/gcc/arm-anykav500-linux-uclibcgnueabi/4.9.4/libgcc.a(_aeabi_uldivmod.o)
 .debug_info    0x0000000000075ba5       0x26 /opt/arm-anykav500-linux-uclibcgnueabi/bin/../lib/gcc/arm-anykav500-linux-uclibcgnueabi/4.9.4/libgcc.a(_dvmd_lnx.o)
 .debug_info    0x0000000000075bcb      0x164 /opt/arm-anykav500-linux-uclibcgnueabi/bin/../lib/gcc/arm-anykav500-linux-uclibcgnueabi/4.9.4/libgcc.a(bpabi.o)
 .debug_info    0x0000000000075d2f      0x271 /opt/arm-anykav500-linux-uclibcgnueabi/bin/../lib/gcc/arm-anykav500-linux-uclibcgnueabi/4.9.4/libgcc.a(_divdi3.o)
 .debug_info    0x0000000000075fa0      0x1ca /opt/arm-anykav500-linux-uclibcgnueabi/bin/../lib/gcc/arm-anykav500-linux-uclibcgnueabi/4.9.4/libgcc.a(_udivdi3.o)

.debug_abbrev   0x0000000000000000    0x1498e
 .debug_abbrev  0x0000000000000000       0x14 arch/arm/cpu/arm926ejs/start.o
 .debug_abbrev  0x0000000000000014      0xdc4 arch/arm/cpu/arm926ejs/ak37e/libak37e.o
 .debug_abbrev  0x0000000000000dd8      0x356 arch/arm/cpu/arm926ejs/libarm926ejs.o
 .debug_abbrev  0x000000000000112e     0x1239 arch/arm/lib/libarm.o
 .debug_abbrev  0x0000000000002367     0x7c69 common/libcommon.o
 .debug_abbrev  0x0000000000009fd0      0x709 disk/libdisk.o
 .debug_abbrev  0x000000000000a6d9      0x2bb drivers/gpio/libgpio.o
 .debug_abbrev  0x000000000000a994      0xdb6 drivers/mmc/libmmc.o
 .debug_abbrev  0x000000000000b74a      0x7a3 drivers/mtd/libmtd.o
 .debug_abbrev  0x000000000000beed      0xe2d drivers/mtd/spi/libspi_flash.o
 .debug_abbrev  0x000000000000cd1a      0x467 drivers/net/libnet.o
 .debug_abbrev  0x000000000000d181      0x81e drivers/serial/libserial.o
 .debug_abbrev  0x000000000000d99f      0x646 drivers/spi/libspi.o
 .debug_abbrev  0x000000000000dfe5      0x4b1 drivers/video/libvideo.o
 .debug_abbrev  0x000000000000e496      0x156 drivers/watchdog/libwatchdog.o
 .debug_abbrev  0x000000000000e5ec      0x74e fs/fat/libfat.o
 .debug_abbrev  0x000000000000ed3a      0x371 fs/libfs.o
 .debug_abbrev  0x000000000000f0ab      0xf7c lib/libfdt/libfdt.o
 .debug_abbrev  0x0000000000010027     0x252a lib/libgeneric.o
 .debug_abbrev  0x0000000000012551     0x1832 net/libnet.o
 .debug_abbrev  0x0000000000013d83      0x792 board/anyka/anycloud_ak37e/libanycloud_ak37e.o
 .debug_abbrev  0x0000000000014515      0x152 /home/leo/workspace/ruian_2wire/common/AK37E_SDK_V1.05_new/os/uboot/arch/arm/lib/eabi_compat.o
 .debug_abbrev  0x0000000000014667       0x14 /opt/arm-anykav500-linux-uclibcgnueabi/bin/../lib/gcc/arm-anykav500-linux-uclibcgnueabi/4.9.4/libgcc.a(_udivsi3.o)
 .debug_abbrev  0x000000000001467b       0x14 /opt/arm-anykav500-linux-uclibcgnueabi/bin/../lib/gcc/arm-anykav500-linux-uclibcgnueabi/4.9.4/libgcc.a(_divsi3.o)
 .debug_abbrev  0x000000000001468f       0x14 /opt/arm-anykav500-linux-uclibcgnueabi/bin/../lib/gcc/arm-anykav500-linux-uclibcgnueabi/4.9.4/libgcc.a(_lshrdi3.o)
 .debug_abbrev  0x00000000000146a3       0x14 /opt/arm-anykav500-linux-uclibcgnueabi/bin/../lib/gcc/arm-anykav500-linux-uclibcgnueabi/4.9.4/libgcc.a(_ashldi3.o)
 .debug_abbrev  0x00000000000146b7       0x14 /opt/arm-anykav500-linux-uclibcgnueabi/bin/../lib/gcc/arm-anykav500-linux-uclibcgnueabi/4.9.4/libgcc.a(_aeabi_uldivmod.o)
 .debug_abbrev  0x00000000000146cb       0x14 /opt/arm-anykav500-linux-uclibcgnueabi/bin/../lib/gcc/arm-anykav500-linux-uclibcgnueabi/4.9.4/libgcc.a(_dvmd_lnx.o)
 .debug_abbrev  0x00000000000146df       0xb7 /opt/arm-anykav500-linux-uclibcgnueabi/bin/../lib/gcc/arm-anykav500-linux-uclibcgnueabi/4.9.4/libgcc.a(bpabi.o)
 .debug_abbrev  0x0000000000014796      0x12a /opt/arm-anykav500-linux-uclibcgnueabi/bin/../lib/gcc/arm-anykav500-linux-uclibcgnueabi/4.9.4/libgcc.a(_divdi3.o)
 .debug_abbrev  0x00000000000148c0       0xce /opt/arm-anykav500-linux-uclibcgnueabi/bin/../lib/gcc/arm-anykav500-linux-uclibcgnueabi/4.9.4/libgcc.a(_udivdi3.o)

.debug_aranges  0x0000000000000000     0x2bf8
 .debug_aranges
                0x0000000000000000       0x20 arch/arm/cpu/arm926ejs/start.o
 .debug_aranges
                0x0000000000000020      0x248 arch/arm/cpu/arm926ejs/ak37e/libak37e.o
 .debug_aranges
                0x0000000000000268       0x68 arch/arm/cpu/arm926ejs/libarm926ejs.o
 .debug_aranges
                0x00000000000002d0      0x2a0 arch/arm/lib/libarm.o
 .debug_aranges
                0x0000000000000570      0xd58 common/libcommon.o
 .debug_aranges
                0x00000000000012c8       0x98 disk/libdisk.o
 .debug_aranges
                0x0000000000001360       0x90 drivers/gpio/libgpio.o
 .debug_aranges
                0x00000000000013f0      0x188 drivers/mmc/libmmc.o
 .debug_aranges
                0x0000000000001578      0x168 drivers/mtd/libmtd.o
 .debug_aranges
                0x00000000000016e0      0x218 drivers/mtd/spi/libspi_flash.o
 .debug_aranges
                0x00000000000018f8       0x78 drivers/net/libnet.o
 .debug_aranges
                0x0000000000001970      0x148 drivers/serial/libserial.o
 .debug_aranges
                0x0000000000001ab8       0xd0 drivers/spi/libspi.o
 .debug_aranges
                0x0000000000001b88       0x90 drivers/video/libvideo.o
 .debug_aranges
                0x0000000000001c18       0x28 drivers/watchdog/libwatchdog.o
 .debug_aranges
                0x0000000000001c40       0xf8 fs/fat/libfat.o
 .debug_aranges
                0x0000000000001d38       0x88 fs/libfs.o
 .debug_aranges
                0x0000000000001dc0      0x2e8 lib/libfdt/libfdt.o
 .debug_aranges
                0x00000000000020a8      0x5c0 lib/libgeneric.o
 .debug_aranges
                0x0000000000002668      0x288 net/libnet.o
 .debug_aranges
                0x00000000000028f0      0x1b8 board/anyka/anycloud_ak37e/libanycloud_ak37e.o
 .debug_aranges
                0x0000000000002aa8       0x30 /home/leo/workspace/ruian_2wire/common/AK37E_SDK_V1.05_new/os/uboot/arch/arm/lib/eabi_compat.o
 .debug_aranges
                0x0000000000002ad8       0x20 /opt/arm-anykav500-linux-uclibcgnueabi/bin/../lib/gcc/arm-anykav500-linux-uclibcgnueabi/4.9.4/libgcc.a(_udivsi3.o)
 .debug_aranges
                0x0000000000002af8       0x20 /opt/arm-anykav500-linux-uclibcgnueabi/bin/../lib/gcc/arm-anykav500-linux-uclibcgnueabi/4.9.4/libgcc.a(_divsi3.o)
 .debug_aranges
                0x0000000000002b18       0x20 /opt/arm-anykav500-linux-uclibcgnueabi/bin/../lib/gcc/arm-anykav500-linux-uclibcgnueabi/4.9.4/libgcc.a(_lshrdi3.o)
 .debug_aranges
                0x0000000000002b38       0x20 /opt/arm-anykav500-linux-uclibcgnueabi/bin/../lib/gcc/arm-anykav500-linux-uclibcgnueabi/4.9.4/libgcc.a(_ashldi3.o)
 .debug_aranges
                0x0000000000002b58       0x20 /opt/arm-anykav500-linux-uclibcgnueabi/bin/../lib/gcc/arm-anykav500-linux-uclibcgnueabi/4.9.4/libgcc.a(_aeabi_uldivmod.o)
 .debug_aranges
                0x0000000000002b78       0x20 /opt/arm-anykav500-linux-uclibcgnueabi/bin/../lib/gcc/arm-anykav500-linux-uclibcgnueabi/4.9.4/libgcc.a(_dvmd_lnx.o)
 .debug_aranges
                0x0000000000002b98       0x20 /opt/arm-anykav500-linux-uclibcgnueabi/bin/../lib/gcc/arm-anykav500-linux-uclibcgnueabi/4.9.4/libgcc.a(bpabi.o)
 .debug_aranges
                0x0000000000002bb8       0x20 /opt/arm-anykav500-linux-uclibcgnueabi/bin/../lib/gcc/arm-anykav500-linux-uclibcgnueabi/4.9.4/libgcc.a(_divdi3.o)
 .debug_aranges
                0x0000000000002bd8       0x20 /opt/arm-anykav500-linux-uclibcgnueabi/bin/../lib/gcc/arm-anykav500-linux-uclibcgnueabi/4.9.4/libgcc.a(_udivdi3.o)

.debug_str      0x0000000000000000     0xf311
 .debug_str     0x0000000000000000       0x71 arch/arm/cpu/arm926ejs/start.o
 .debug_str     0x0000000000000071      0xa58 arch/arm/cpu/arm926ejs/ak37e/libak37e.o
                                       0x201d (size before relaxing)
 .debug_str     0x0000000000000ac9       0xb8 arch/arm/cpu/arm926ejs/libarm926ejs.o
                                        0x72d (size before relaxing)
 .debug_str     0x0000000000000b81     0x1424 arch/arm/lib/libarm.o
                                       0x3e11 (size before relaxing)
 .debug_str     0x0000000000001fa5     0x463c common/libcommon.o
                                      0x145a1 (size before relaxing)
 .debug_str     0x00000000000065e1      0x29a disk/libdisk.o
                                        0xc94 (size before relaxing)
 .debug_str     0x000000000000687b      0x49e drivers/gpio/libgpio.o
                                        0x7a3 (size before relaxing)
 .debug_str     0x0000000000006d19      0xc4f drivers/mmc/libmmc.o
                                       0x219f (size before relaxing)
 .debug_str     0x0000000000007968      0x3c9 drivers/mtd/libmtd.o
                                       0x127a (size before relaxing)
 .debug_str     0x0000000000007d31      0xa72 drivers/mtd/spi/libspi_flash.o
                                       0x2a48 (size before relaxing)
 .debug_str     0x00000000000087a3     0x2da2 drivers/net/libnet.o
                                       0x3807 (size before relaxing)
 .debug_str     0x000000000000b545      0x346 drivers/serial/libserial.o
                                        0xd6c (size before relaxing)
 .debug_str     0x000000000000b88b      0x2da drivers/spi/libspi.o
                                        0xb64 (size before relaxing)
 .debug_str     0x000000000000bb65      0xab0 drivers/video/libvideo.o
                                       0x16ca (size before relaxing)
 .debug_str     0x000000000000c615       0x72 drivers/watchdog/libwatchdog.o
                                        0x363 (size before relaxing)
 .debug_str     0x000000000000c687      0x5d1 fs/fat/libfat.o
                                        0xe62 (size before relaxing)
 .debug_str     0x000000000000cc58      0x130 fs/libfs.o
                                        0x787 (size before relaxing)
 .debug_str     0x000000000000cd88      0x645 lib/libfdt/libfdt.o
                                       0x2134 (size before relaxing)
 .debug_str     0x000000000000d3cd      0x8b0 lib/libgeneric.o
                                       0x5439 (size before relaxing)
 .debug_str     0x000000000000dc7d      0xd90 net/libnet.o
                                       0x4b36 (size before relaxing)
 .debug_str     0x000000000000ea0d      0x54a board/anyka/anycloud_ak37e/libanycloud_ak37e.o
                                       0x14fb (size before relaxing)
 .debug_str     0x000000000000ef57       0x49 /home/leo/workspace/ruian_2wire/common/AK37E_SDK_V1.05_new/os/uboot/arch/arm/lib/eabi_compat.o
                                        0x360 (size before relaxing)
 .debug_str     0x000000000000efa0       0xaf /opt/arm-anykav500-linux-uclibcgnueabi/bin/../lib/gcc/arm-anykav500-linux-uclibcgnueabi/4.9.4/libgcc.a(_udivsi3.o)
                                         0xbd (size before relaxing)
 .debug_str     0x000000000000f04f       0xbd /opt/arm-anykav500-linux-uclibcgnueabi/bin/../lib/gcc/arm-anykav500-linux-uclibcgnueabi/4.9.4/libgcc.a(_divsi3.o)
 .debug_str     0x000000000000f04f       0xbd /opt/arm-anykav500-linux-uclibcgnueabi/bin/../lib/gcc/arm-anykav500-linux-uclibcgnueabi/4.9.4/libgcc.a(_lshrdi3.o)
 .debug_str     0x000000000000f04f       0xbd /opt/arm-anykav500-linux-uclibcgnueabi/bin/../lib/gcc/arm-anykav500-linux-uclibcgnueabi/4.9.4/libgcc.a(_ashldi3.o)
 .debug_str     0x000000000000f04f       0x23 /opt/arm-anykav500-linux-uclibcgnueabi/bin/../lib/gcc/arm-anykav500-linux-uclibcgnueabi/4.9.4/libgcc.a(_aeabi_uldivmod.o)
                                         0xb9 (size before relaxing)
 .debug_str     0x000000000000f072       0xbd /opt/arm-anykav500-linux-uclibcgnueabi/bin/../lib/gcc/arm-anykav500-linux-uclibcgnueabi/4.9.4/libgcc.a(_dvmd_lnx.o)
 .debug_str     0x000000000000f072      0x147 /opt/arm-anykav500-linux-uclibcgnueabi/bin/../lib/gcc/arm-anykav500-linux-uclibcgnueabi/4.9.4/libgcc.a(bpabi.o)
                                        0x207 (size before relaxing)
 .debug_str     0x000000000000f1b9      0x158 /opt/arm-anykav500-linux-uclibcgnueabi/bin/../lib/gcc/arm-anykav500-linux-uclibcgnueabi/4.9.4/libgcc.a(_divdi3.o)
                                        0x29b (size before relaxing)
 .debug_str     0x000000000000f311      0x278 /opt/arm-anykav500-linux-uclibcgnueabi/bin/../lib/gcc/arm-anykav500-linux-uclibcgnueabi/4.9.4/libgcc.a(_udivdi3.o)

.debug_frame    0x0000000000000000     0x773c
 .debug_frame   0x0000000000000000      0x420 arch/arm/cpu/arm926ejs/ak37e/libak37e.o
 .debug_frame   0x0000000000000420       0x98 arch/arm/cpu/arm926ejs/libarm926ejs.o
 .debug_frame   0x00000000000004b8      0x4c0 arch/arm/lib/libarm.o
 .debug_frame   0x0000000000000978     0x266c common/libcommon.o
 .debug_frame   0x0000000000002fe4      0x1fc disk/libdisk.o
 .debug_frame   0x00000000000031e0      0x14c drivers/gpio/libgpio.o
 .debug_frame   0x000000000000332c      0x4d8 drivers/mmc/libmmc.o
 .debug_frame   0x0000000000003804      0x4c0 drivers/mtd/libmtd.o
 .debug_frame   0x0000000000003cc4      0x7b4 drivers/mtd/spi/libspi_flash.o
 .debug_frame   0x0000000000004478      0x158 drivers/net/libnet.o
 .debug_frame   0x00000000000045d0      0x31c drivers/serial/libserial.o
 .debug_frame   0x00000000000048ec      0x20c drivers/spi/libspi.o
 .debug_frame   0x0000000000004af8      0x1c8 drivers/video/libvideo.o
 .debug_frame   0x0000000000004cc0       0x38 drivers/watchdog/libwatchdog.o
 .debug_frame   0x0000000000004cf8      0x2fc fs/fat/libfat.o
 .debug_frame   0x0000000000004ff4      0x188 fs/libfs.o
 .debug_frame   0x000000000000517c      0x950 lib/libfdt/libfdt.o
 .debug_frame   0x0000000000005acc      0xe84 lib/libgeneric.o
 .debug_frame   0x0000000000006950      0x760 net/libnet.o
 .debug_frame   0x00000000000070b0      0x51c board/anyka/anycloud_ak37e/libanycloud_ak37e.o
 .debug_frame   0x00000000000075cc       0x48 /home/leo/workspace/ruian_2wire/common/AK37E_SDK_V1.05_new/os/uboot/arch/arm/lib/eabi_compat.o
 .debug_frame   0x0000000000007614       0x20 /opt/arm-anykav500-linux-uclibcgnueabi/bin/../lib/gcc/arm-anykav500-linux-uclibcgnueabi/4.9.4/libgcc.a(_udivsi3.o)
 .debug_frame   0x0000000000007634       0x20 /opt/arm-anykav500-linux-uclibcgnueabi/bin/../lib/gcc/arm-anykav500-linux-uclibcgnueabi/4.9.4/libgcc.a(_divsi3.o)
 .debug_frame   0x0000000000007654       0x28 /opt/arm-anykav500-linux-uclibcgnueabi/bin/../lib/gcc/arm-anykav500-linux-uclibcgnueabi/4.9.4/libgcc.a(_aeabi_uldivmod.o)
 .debug_frame   0x000000000000767c       0x54 /opt/arm-anykav500-linux-uclibcgnueabi/bin/../lib/gcc/arm-anykav500-linux-uclibcgnueabi/4.9.4/libgcc.a(bpabi.o)
 .debug_frame   0x00000000000076d0       0x38 /opt/arm-anykav500-linux-uclibcgnueabi/bin/../lib/gcc/arm-anykav500-linux-uclibcgnueabi/4.9.4/libgcc.a(_divdi3.o)
 .debug_frame   0x0000000000007708       0x34 /opt/arm-anykav500-linux-uclibcgnueabi/bin/../lib/gcc/arm-anykav500-linux-uclibcgnueabi/4.9.4/libgcc.a(_udivdi3.o)

.debug_loc      0x0000000000000000    0x3f4c1
 .debug_loc     0x0000000000000000     0x16b5 arch/arm/cpu/arm926ejs/ak37e/libak37e.o
 .debug_loc     0x00000000000016b5      0x104 arch/arm/cpu/arm926ejs/libarm926ejs.o
 .debug_loc     0x00000000000017b9      0xaa3 arch/arm/lib/libarm.o
 .debug_loc     0x000000000000225c    0x17efe common/libcommon.o
 .debug_loc     0x000000000001a15a      0xfb3 disk/libdisk.o
 .debug_loc     0x000000000001b10d      0x745 drivers/gpio/libgpio.o
 .debug_loc     0x000000000001b852     0x2978 drivers/mmc/libmmc.o
 .debug_loc     0x000000000001e1ca     0x17ee drivers/mtd/libmtd.o
 .debug_loc     0x000000000001f9b8     0x3f23 drivers/mtd/spi/libspi_flash.o
 .debug_loc     0x00000000000238db     0x4792 drivers/net/libnet.o
 .debug_loc     0x000000000002806d      0x7a4 drivers/serial/libserial.o
 .debug_loc     0x0000000000028811     0x1381 drivers/spi/libspi.o
 .debug_loc     0x0000000000029b92     0x15ba drivers/video/libvideo.o
 .debug_loc     0x000000000002b14c       0x6e drivers/watchdog/libwatchdog.o
 .debug_loc     0x000000000002b1ba     0x233a fs/fat/libfat.o
 .debug_loc     0x000000000002d4f4      0x805 fs/libfs.o
 .debug_loc     0x000000000002dcf9     0x509c lib/libfdt/libfdt.o
 .debug_loc     0x0000000000032d95     0x6b5e lib/libgeneric.o
 .debug_loc     0x00000000000398f3     0x34da net/libnet.o
 .debug_loc     0x000000000003cdcd     0x2012 board/anyka/anycloud_ak37e/libanycloud_ak37e.o
 .debug_loc     0x000000000003eddf       0x2c /home/leo/workspace/ruian_2wire/common/AK37E_SDK_V1.05_new/os/uboot/arch/arm/lib/eabi_compat.o
 .debug_loc     0x000000000003ee0b       0xa0 /opt/arm-anykav500-linux-uclibcgnueabi/bin/../lib/gcc/arm-anykav500-linux-uclibcgnueabi/4.9.4/libgcc.a(bpabi.o)
 .debug_loc     0x000000000003eeab      0x2bc /opt/arm-anykav500-linux-uclibcgnueabi/bin/../lib/gcc/arm-anykav500-linux-uclibcgnueabi/4.9.4/libgcc.a(_divdi3.o)
 .debug_loc     0x000000000003f167      0x35a /opt/arm-anykav500-linux-uclibcgnueabi/bin/../lib/gcc/arm-anykav500-linux-uclibcgnueabi/4.9.4/libgcc.a(_udivdi3.o)

.debug_ranges   0x0000000000000000     0x5250
 .debug_ranges  0x0000000000000000      0x258 arch/arm/cpu/arm926ejs/ak37e/libak37e.o
 .debug_ranges  0x0000000000000258       0x48 arch/arm/cpu/arm926ejs/libarm926ejs.o
 .debug_ranges  0x00000000000002a0      0x238 arch/arm/lib/libarm.o
 .debug_ranges  0x00000000000004d8     0x18c8 common/libcommon.o
 .debug_ranges  0x0000000000001da0       0xe0 disk/libdisk.o
 .debug_ranges  0x0000000000001e80       0xf8 drivers/gpio/libgpio.o
 .debug_ranges  0x0000000000001f78      0x5e8 drivers/mmc/libmmc.o
 .debug_ranges  0x0000000000002560      0x290 drivers/mtd/libmtd.o
 .debug_ranges  0x00000000000027f0      0x330 drivers/mtd/spi/libspi_flash.o
 .debug_ranges  0x0000000000002b20      0x3d8 drivers/net/libnet.o
 .debug_ranges  0x0000000000002ef8      0x1c0 drivers/serial/libserial.o
 .debug_ranges  0x00000000000030b8      0x228 drivers/spi/libspi.o
 .debug_ranges  0x00000000000032e0      0x110 drivers/video/libvideo.o
 .debug_ranges  0x00000000000033f0       0x18 drivers/watchdog/libwatchdog.o
 .debug_ranges  0x0000000000003408      0x208 fs/fat/libfat.o
 .debug_ranges  0x0000000000003610       0x78 fs/libfs.o
 .debug_ranges  0x0000000000003688      0x9d0 lib/libfdt/libfdt.o
 .debug_ranges  0x0000000000004058      0x870 lib/libgeneric.o
 .debug_ranges  0x00000000000048c8      0x5d0 net/libnet.o
 .debug_ranges  0x0000000000004e98      0x368 board/anyka/anycloud_ak37e/libanycloud_ak37e.o
 .debug_ranges  0x0000000000005200       0x20 /home/leo/workspace/ruian_2wire/common/AK37E_SDK_V1.05_new/os/uboot/arch/arm/lib/eabi_compat.o
 .debug_ranges  0x0000000000005220       0x18 /opt/arm-anykav500-linux-uclibcgnueabi/bin/../lib/gcc/arm-anykav500-linux-uclibcgnueabi/4.9.4/libgcc.a(_divdi3.o)
 .debug_ranges  0x0000000000005238       0x18 /opt/arm-anykav500-linux-uclibcgnueabi/bin/../lib/gcc/arm-anykav500-linux-uclibcgnueabi/4.9.4/libgcc.a(_udivdi3.o)
